
Master_ESC.elf:     file format elf32-littlearm

Sections:
Idx Name          Size      VMA       LMA       File off  Algn
  0 .isr_vector   000001d8  08000000  08000000  00001000  2**0
                  CONTENTS, ALLOC, LOAD, READONLY, DATA
  1 .text         000021ec  080001d8  080001d8  000011d8  2**2
                  CONTENTS, ALLOC, LOAD, READONLY, CODE
  2 .rodata       00000038  080023c4  080023c4  000033c4  2**2
                  CONTENTS, ALLOC, LOAD, READONLY, DATA
  3 .ARM.extab    00000000  080023fc  080023fc  00004088  2**0
                  CONTENTS, READONLY
  4 .ARM          00000000  080023fc  080023fc  00004088  2**0
                  CONTENTS, READONLY
  5 .preinit_array 00000000  080023fc  080023fc  00004088  2**0
                  CONTENTS, ALLOC, LOAD, DATA
  6 .init_array   00000004  080023fc  080023fc  000033fc  2**2
                  CONTENTS, ALLOC, LOAD, READONLY, DATA
  7 .fini_array   00000004  08002400  08002400  00003400  2**2
                  CONTENTS, ALLOC, LOAD, READONLY, DATA
  8 .data         00000088  20000000  08002404  00004000  2**2
                  CONTENTS, ALLOC, LOAD, DATA
  9 .bss          00000174  20000088  0800248c  00004088  2**2
                  ALLOC
 10 ._user_heap_stack 00000604  200001fc  0800248c  000041fc  2**0
                  ALLOC
 11 .ARM.attributes 00000030  00000000  00000000  00004088  2**0
                  CONTENTS, READONLY
 12 .debug_info   00006113  00000000  00000000  000040b8  2**0
                  CONTENTS, READONLY, DEBUGGING, OCTETS
 13 .debug_abbrev 000016c9  00000000  00000000  0000a1cb  2**0
                  CONTENTS, READONLY, DEBUGGING, OCTETS
 14 .debug_aranges 000006f0  00000000  00000000  0000b898  2**3
                  CONTENTS, READONLY, DEBUGGING, OCTETS
 15 .debug_rnglists 000004f7  00000000  00000000  0000bf88  2**0
                  CONTENTS, READONLY, DEBUGGING, OCTETS
 16 .debug_macro  0001dd78  00000000  00000000  0000c47f  2**0
                  CONTENTS, READONLY, DEBUGGING, OCTETS
 17 .debug_line   00008fdf  00000000  00000000  0002a1f7  2**0
                  CONTENTS, READONLY, DEBUGGING, OCTETS
 18 .debug_str    000b24de  00000000  00000000  000331d6  2**0
                  CONTENTS, READONLY, DEBUGGING, OCTETS
 19 .comment      00000043  00000000  00000000  000e56b4  2**0
                  CONTENTS, READONLY
 20 .debug_frame  00001ce0  00000000  00000000  000e56f8  2**2
                  CONTENTS, READONLY, DEBUGGING, OCTETS
 21 .debug_line_str 00000060  00000000  00000000  000e73d8  2**0
                  CONTENTS, READONLY, DEBUGGING, OCTETS

Disassembly of section .text:

080001d8 <__do_global_dtors_aux>:
 80001d8:	b510      	push	{r4, lr}
 80001da:	4c05      	ldr	r4, [pc, #20]	@ (80001f0 <__do_global_dtors_aux+0x18>)
 80001dc:	7823      	ldrb	r3, [r4, #0]
 80001de:	b933      	cbnz	r3, 80001ee <__do_global_dtors_aux+0x16>
 80001e0:	4b04      	ldr	r3, [pc, #16]	@ (80001f4 <__do_global_dtors_aux+0x1c>)
 80001e2:	b113      	cbz	r3, 80001ea <__do_global_dtors_aux+0x12>
 80001e4:	4804      	ldr	r0, [pc, #16]	@ (80001f8 <__do_global_dtors_aux+0x20>)
 80001e6:	f3af 8000 	nop.w
 80001ea:	2301      	movs	r3, #1
 80001ec:	7023      	strb	r3, [r4, #0]
 80001ee:	bd10      	pop	{r4, pc}
 80001f0:	20000088 	.word	0x20000088
 80001f4:	00000000 	.word	0x00000000
 80001f8:	080023ac 	.word	0x080023ac

080001fc <frame_dummy>:
 80001fc:	b508      	push	{r3, lr}
 80001fe:	4b03      	ldr	r3, [pc, #12]	@ (800020c <frame_dummy+0x10>)
 8000200:	b11b      	cbz	r3, 800020a <frame_dummy+0xe>
 8000202:	4903      	ldr	r1, [pc, #12]	@ (8000210 <frame_dummy+0x14>)
 8000204:	4803      	ldr	r0, [pc, #12]	@ (8000214 <frame_dummy+0x18>)
 8000206:	f3af 8000 	nop.w
 800020a:	bd08      	pop	{r3, pc}
 800020c:	00000000 	.word	0x00000000
 8000210:	2000008c 	.word	0x2000008c
 8000214:	080023ac 	.word	0x080023ac

08000218 <__NVIC_DisableIRQ>:
  \details Disables a device specific interrupt in the NVIC interrupt controller.
  \param [in]      IRQn  Device specific interrupt number.
  \note    IRQn must not be negative.
 */
__STATIC_INLINE void __NVIC_DisableIRQ(IRQn_Type IRQn)
{
 8000218:	b480      	push	{r7}
 800021a:	b083      	sub	sp, #12
 800021c:	af00      	add	r7, sp, #0
 800021e:	4603      	mov	r3, r0
 8000220:	71fb      	strb	r3, [r7, #7]
  if ((int32_t)(IRQn) >= 0)
 8000222:	f997 3007 	ldrsb.w	r3, [r7, #7]
 8000226:	2b00      	cmp	r3, #0
 8000228:	db12      	blt.n	8000250 <__NVIC_DisableIRQ+0x38>
  {
    NVIC->ICER[(((uint32_t)IRQn) >> 5UL)] = (uint32_t)(1UL << (((uint32_t)IRQn) & 0x1FUL));
 800022a:	79fb      	ldrb	r3, [r7, #7]
 800022c:	f003 021f 	and.w	r2, r3, #31
 8000230:	490a      	ldr	r1, [pc, #40]	@ (800025c <__NVIC_DisableIRQ+0x44>)
 8000232:	f997 3007 	ldrsb.w	r3, [r7, #7]
 8000236:	095b      	lsrs	r3, r3, #5
 8000238:	2001      	movs	r0, #1
 800023a:	fa00 f202 	lsl.w	r2, r0, r2
 800023e:	3320      	adds	r3, #32
 8000240:	f841 2023 	str.w	r2, [r1, r3, lsl #2]
  \details Acts as a special kind of Data Memory Barrier.
           It completes when all explicit memory accesses before this instruction complete.
 */
__STATIC_FORCEINLINE void __DSB(void)
{
  __ASM volatile ("dsb 0xF":::"memory");
 8000244:	f3bf 8f4f 	dsb	sy
}
 8000248:	bf00      	nop
  __ASM volatile ("isb 0xF":::"memory");
 800024a:	f3bf 8f6f 	isb	sy
}
 800024e:	bf00      	nop
    __DSB();
    __ISB();
  }
}
 8000250:	bf00      	nop
 8000252:	370c      	adds	r7, #12
 8000254:	46bd      	mov	sp, r7
 8000256:	f85d 7b04 	ldr.w	r7, [sp], #4
 800025a:	4770      	bx	lr
 800025c:	e000e100 	.word	0xe000e100

08000260 <COMP1_Init>:

volatile uint16_t case_interrupt_counter = 0;

// COMP1_INP -> PA1+
// COMP1_INM -> PA4-
void COMP1_Init(void){
 8000260:	b480      	push	{r7}
 8000262:	af00      	add	r7, sp, #0
	// Enable GPIOA Clk
	RCC->AHB2ENR |= RCC_AHB2ENR_GPIOAEN;
 8000264:	4b2a      	ldr	r3, [pc, #168]	@ (8000310 <COMP1_Init+0xb0>)
 8000266:	6cdb      	ldr	r3, [r3, #76]	@ 0x4c
 8000268:	4a29      	ldr	r2, [pc, #164]	@ (8000310 <COMP1_Init+0xb0>)
 800026a:	f043 0301 	orr.w	r3, r3, #1
 800026e:	64d3      	str	r3, [r2, #76]	@ 0x4c
	// Enable COMPx Clk access
	RCC->APB2ENR |= RCC_APB2ENR_SYSCFGEN;
 8000270:	4b27      	ldr	r3, [pc, #156]	@ (8000310 <COMP1_Init+0xb0>)
 8000272:	6e1b      	ldr	r3, [r3, #96]	@ 0x60
 8000274:	4a26      	ldr	r2, [pc, #152]	@ (8000310 <COMP1_Init+0xb0>)
 8000276:	f043 0301 	orr.w	r3, r3, #1
 800027a:	6613      	str	r3, [r2, #96]	@ 0x60

	// Set PA1+ to Analog Mode
	GPIOA->MODER &= ~(0b11 << 2);
 800027c:	f04f 4390 	mov.w	r3, #1207959552	@ 0x48000000
 8000280:	681b      	ldr	r3, [r3, #0]
 8000282:	f04f 4290 	mov.w	r2, #1207959552	@ 0x48000000
 8000286:	f023 030c 	bic.w	r3, r3, #12
 800028a:	6013      	str	r3, [r2, #0]
	GPIOA->MODER |= (0b11 << 2);
 800028c:	f04f 4390 	mov.w	r3, #1207959552	@ 0x48000000
 8000290:	681b      	ldr	r3, [r3, #0]
 8000292:	f04f 4290 	mov.w	r2, #1207959552	@ 0x48000000
 8000296:	f043 030c 	orr.w	r3, r3, #12
 800029a:	6013      	str	r3, [r2, #0]
	// Set PA4- to Analog Mode
	GPIOA->MODER &= ~(0b11 << 8);
 800029c:	f04f 4390 	mov.w	r3, #1207959552	@ 0x48000000
 80002a0:	681b      	ldr	r3, [r3, #0]
 80002a2:	f04f 4290 	mov.w	r2, #1207959552	@ 0x48000000
 80002a6:	f423 7340 	bic.w	r3, r3, #768	@ 0x300
 80002aa:	6013      	str	r3, [r2, #0]
	GPIOA->MODER |= (0b11 << 8);
 80002ac:	f04f 4390 	mov.w	r3, #1207959552	@ 0x48000000
 80002b0:	681b      	ldr	r3, [r3, #0]
 80002b2:	f04f 4290 	mov.w	r2, #1207959552	@ 0x48000000
 80002b6:	f443 7340 	orr.w	r3, r3, #768	@ 0x300
 80002ba:	6013      	str	r3, [r2, #0]

	// Disable pull-up/pull-down
	GPIOA->PUPDR &= ~(0b11 << 2);
 80002bc:	f04f 4390 	mov.w	r3, #1207959552	@ 0x48000000
 80002c0:	68db      	ldr	r3, [r3, #12]
 80002c2:	f04f 4290 	mov.w	r2, #1207959552	@ 0x48000000
 80002c6:	f023 030c 	bic.w	r3, r3, #12
 80002ca:	60d3      	str	r3, [r2, #12]
	GPIOA->PUPDR &= ~(0b11 << 8);
 80002cc:	f04f 4390 	mov.w	r3, #1207959552	@ 0x48000000
 80002d0:	68db      	ldr	r3, [r3, #12]
 80002d2:	f04f 4290 	mov.w	r2, #1207959552	@ 0x48000000
 80002d6:	f423 7340 	bic.w	r3, r3, #768	@ 0x300
 80002da:	60d3      	str	r3, [r2, #12]

	// Init COMP1
	// Clear CSR
	COMP1->CSR = 0;
 80002dc:	4b0d      	ldr	r3, [pc, #52]	@ (8000314 <COMP1_Init+0xb4>)
 80002de:	2200      	movs	r2, #0
 80002e0:	601a      	str	r2, [r3, #0]
	// Set COMP1_INP input to PA1
	COMP1->CSR &= ~(1 << 8);
 80002e2:	4b0c      	ldr	r3, [pc, #48]	@ (8000314 <COMP1_Init+0xb4>)
 80002e4:	681b      	ldr	r3, [r3, #0]
 80002e6:	4a0b      	ldr	r2, [pc, #44]	@ (8000314 <COMP1_Init+0xb4>)
 80002e8:	f423 7380 	bic.w	r3, r3, #256	@ 0x100
 80002ec:	6013      	str	r3, [r2, #0]
	// Set COMP1_INM input to PA4
	COMP1->CSR |= (0b110 << 4);
 80002ee:	4b09      	ldr	r3, [pc, #36]	@ (8000314 <COMP1_Init+0xb4>)
 80002f0:	681b      	ldr	r3, [r3, #0]
 80002f2:	4a08      	ldr	r2, [pc, #32]	@ (8000314 <COMP1_Init+0xb4>)
 80002f4:	f043 0360 	orr.w	r3, r3, #96	@ 0x60
 80002f8:	6013      	str	r3, [r2, #0]
	// Enable COMP1
	COMP1->CSR |= COMP_CSR_EN;
 80002fa:	4b06      	ldr	r3, [pc, #24]	@ (8000314 <COMP1_Init+0xb4>)
 80002fc:	681b      	ldr	r3, [r3, #0]
 80002fe:	4a05      	ldr	r2, [pc, #20]	@ (8000314 <COMP1_Init+0xb4>)
 8000300:	f043 0301 	orr.w	r3, r3, #1
 8000304:	6013      	str	r3, [r2, #0]
}
 8000306:	bf00      	nop
 8000308:	46bd      	mov	sp, r7
 800030a:	f85d 7b04 	ldr.w	r7, [sp], #4
 800030e:	4770      	bx	lr
 8000310:	40021000 	.word	0x40021000
 8000314:	40010200 	.word	0x40010200

08000318 <COMP3_Init_v2>:

// COMP3_INP -> PC1+
// COMP3_INM -> PC0-
void COMP3_Init_v2(void){
 8000318:	b480      	push	{r7}
 800031a:	af00      	add	r7, sp, #0
	// Enable GPIOC Clk
	RCC->AHB2ENR |= RCC_AHB2ENR_GPIOCEN;
 800031c:	4b24      	ldr	r3, [pc, #144]	@ (80003b0 <COMP3_Init_v2+0x98>)
 800031e:	6cdb      	ldr	r3, [r3, #76]	@ 0x4c
 8000320:	4a23      	ldr	r2, [pc, #140]	@ (80003b0 <COMP3_Init_v2+0x98>)
 8000322:	f043 0304 	orr.w	r3, r3, #4
 8000326:	64d3      	str	r3, [r2, #76]	@ 0x4c
	// Enable COMPx Clk access
	RCC->APB2ENR |= RCC_APB2ENR_SYSCFGEN;
 8000328:	4b21      	ldr	r3, [pc, #132]	@ (80003b0 <COMP3_Init_v2+0x98>)
 800032a:	6e1b      	ldr	r3, [r3, #96]	@ 0x60
 800032c:	4a20      	ldr	r2, [pc, #128]	@ (80003b0 <COMP3_Init_v2+0x98>)
 800032e:	f043 0301 	orr.w	r3, r3, #1
 8000332:	6613      	str	r3, [r2, #96]	@ 0x60

	// Set PC1+ to Analog Mode
	GPIOC->MODER &= ~(0b11 << 2); // <-THIS
 8000334:	4b1f      	ldr	r3, [pc, #124]	@ (80003b4 <COMP3_Init_v2+0x9c>)
 8000336:	681b      	ldr	r3, [r3, #0]
 8000338:	4a1e      	ldr	r2, [pc, #120]	@ (80003b4 <COMP3_Init_v2+0x9c>)
 800033a:	f023 030c 	bic.w	r3, r3, #12
 800033e:	6013      	str	r3, [r2, #0]
	GPIOC->MODER |= (0b11 << 2);
 8000340:	4b1c      	ldr	r3, [pc, #112]	@ (80003b4 <COMP3_Init_v2+0x9c>)
 8000342:	681b      	ldr	r3, [r3, #0]
 8000344:	4a1b      	ldr	r2, [pc, #108]	@ (80003b4 <COMP3_Init_v2+0x9c>)
 8000346:	f043 030c 	orr.w	r3, r3, #12
 800034a:	6013      	str	r3, [r2, #0]
	// Set PC0- to Analog Mode
	GPIOC->MODER &= ~(0b11 << 0);
 800034c:	4b19      	ldr	r3, [pc, #100]	@ (80003b4 <COMP3_Init_v2+0x9c>)
 800034e:	681b      	ldr	r3, [r3, #0]
 8000350:	4a18      	ldr	r2, [pc, #96]	@ (80003b4 <COMP3_Init_v2+0x9c>)
 8000352:	f023 0303 	bic.w	r3, r3, #3
 8000356:	6013      	str	r3, [r2, #0]
	GPIOC->MODER |= (0b11 << 0);
 8000358:	4b16      	ldr	r3, [pc, #88]	@ (80003b4 <COMP3_Init_v2+0x9c>)
 800035a:	681b      	ldr	r3, [r3, #0]
 800035c:	4a15      	ldr	r2, [pc, #84]	@ (80003b4 <COMP3_Init_v2+0x9c>)
 800035e:	f043 0303 	orr.w	r3, r3, #3
 8000362:	6013      	str	r3, [r2, #0]

	// Disable pull-up/pull-down
	GPIOC->PUPDR &= ~(0b11 << 0);
 8000364:	4b13      	ldr	r3, [pc, #76]	@ (80003b4 <COMP3_Init_v2+0x9c>)
 8000366:	68db      	ldr	r3, [r3, #12]
 8000368:	4a12      	ldr	r2, [pc, #72]	@ (80003b4 <COMP3_Init_v2+0x9c>)
 800036a:	f023 0303 	bic.w	r3, r3, #3
 800036e:	60d3      	str	r3, [r2, #12]
	GPIOC->PUPDR &= ~(0b11 << 2);
 8000370:	4b10      	ldr	r3, [pc, #64]	@ (80003b4 <COMP3_Init_v2+0x9c>)
 8000372:	68db      	ldr	r3, [r3, #12]
 8000374:	4a0f      	ldr	r2, [pc, #60]	@ (80003b4 <COMP3_Init_v2+0x9c>)
 8000376:	f023 030c 	bic.w	r3, r3, #12
 800037a:	60d3      	str	r3, [r2, #12]

	// Init COMP3
	// Clear CSR
	COMP3->CSR = 0;
 800037c:	4b0e      	ldr	r3, [pc, #56]	@ (80003b8 <COMP3_Init_v2+0xa0>)
 800037e:	2200      	movs	r2, #0
 8000380:	601a      	str	r2, [r3, #0]
	// Set COMP3_INP input to PC1+
	COMP3->CSR |= (1 << 8);
 8000382:	4b0d      	ldr	r3, [pc, #52]	@ (80003b8 <COMP3_Init_v2+0xa0>)
 8000384:	681b      	ldr	r3, [r3, #0]
 8000386:	4a0c      	ldr	r2, [pc, #48]	@ (80003b8 <COMP3_Init_v2+0xa0>)
 8000388:	f443 7380 	orr.w	r3, r3, #256	@ 0x100
 800038c:	6013      	str	r3, [r2, #0]
	// Set COMP3_INM input to PC0-
	COMP3->CSR |= (0b111 << 4);
 800038e:	4b0a      	ldr	r3, [pc, #40]	@ (80003b8 <COMP3_Init_v2+0xa0>)
 8000390:	681b      	ldr	r3, [r3, #0]
 8000392:	4a09      	ldr	r2, [pc, #36]	@ (80003b8 <COMP3_Init_v2+0xa0>)
 8000394:	f043 0370 	orr.w	r3, r3, #112	@ 0x70
 8000398:	6013      	str	r3, [r2, #0]
	// Enable COMP3
	COMP3->CSR |= COMP_CSR_EN;
 800039a:	4b07      	ldr	r3, [pc, #28]	@ (80003b8 <COMP3_Init_v2+0xa0>)
 800039c:	681b      	ldr	r3, [r3, #0]
 800039e:	4a06      	ldr	r2, [pc, #24]	@ (80003b8 <COMP3_Init_v2+0xa0>)
 80003a0:	f043 0301 	orr.w	r3, r3, #1
 80003a4:	6013      	str	r3, [r2, #0]
}
 80003a6:	bf00      	nop
 80003a8:	46bd      	mov	sp, r7
 80003aa:	f85d 7b04 	ldr.w	r7, [sp], #4
 80003ae:	4770      	bx	lr
 80003b0:	40021000 	.word	0x40021000
 80003b4:	48000800 	.word	0x48000800
 80003b8:	40010208 	.word	0x40010208

080003bc <COMP4_Init_v2>:

// COMP4_INP -> PB0+
// COMP4_INM -> PB2-
void COMP4_Init_v2(void){
 80003bc:	b480      	push	{r7}
 80003be:	af00      	add	r7, sp, #0
	// Enable GPIOB Clk
	RCC->AHB2ENR |= RCC_AHB2ENR_GPIOBEN;
 80003c0:	4b24      	ldr	r3, [pc, #144]	@ (8000454 <COMP4_Init_v2+0x98>)
 80003c2:	6cdb      	ldr	r3, [r3, #76]	@ 0x4c
 80003c4:	4a23      	ldr	r2, [pc, #140]	@ (8000454 <COMP4_Init_v2+0x98>)
 80003c6:	f043 0302 	orr.w	r3, r3, #2
 80003ca:	64d3      	str	r3, [r2, #76]	@ 0x4c
	// Enable COMPx Clk access
	RCC->APB2ENR |= RCC_APB2ENR_SYSCFGEN;
 80003cc:	4b21      	ldr	r3, [pc, #132]	@ (8000454 <COMP4_Init_v2+0x98>)
 80003ce:	6e1b      	ldr	r3, [r3, #96]	@ 0x60
 80003d0:	4a20      	ldr	r2, [pc, #128]	@ (8000454 <COMP4_Init_v2+0x98>)
 80003d2:	f043 0301 	orr.w	r3, r3, #1
 80003d6:	6613      	str	r3, [r2, #96]	@ 0x60

	// Set PB0+ to Analog Mode
	GPIOB->MODER &= ~(0b11 << 0);
 80003d8:	4b1f      	ldr	r3, [pc, #124]	@ (8000458 <COMP4_Init_v2+0x9c>)
 80003da:	681b      	ldr	r3, [r3, #0]
 80003dc:	4a1e      	ldr	r2, [pc, #120]	@ (8000458 <COMP4_Init_v2+0x9c>)
 80003de:	f023 0303 	bic.w	r3, r3, #3
 80003e2:	6013      	str	r3, [r2, #0]
	GPIOB->MODER |= (0b11 << 0);
 80003e4:	4b1c      	ldr	r3, [pc, #112]	@ (8000458 <COMP4_Init_v2+0x9c>)
 80003e6:	681b      	ldr	r3, [r3, #0]
 80003e8:	4a1b      	ldr	r2, [pc, #108]	@ (8000458 <COMP4_Init_v2+0x9c>)
 80003ea:	f043 0303 	orr.w	r3, r3, #3
 80003ee:	6013      	str	r3, [r2, #0]
	// Set PB2- to Analog Mode
	GPIOB->MODER &= ~(0b11 << 4);
 80003f0:	4b19      	ldr	r3, [pc, #100]	@ (8000458 <COMP4_Init_v2+0x9c>)
 80003f2:	681b      	ldr	r3, [r3, #0]
 80003f4:	4a18      	ldr	r2, [pc, #96]	@ (8000458 <COMP4_Init_v2+0x9c>)
 80003f6:	f023 0330 	bic.w	r3, r3, #48	@ 0x30
 80003fa:	6013      	str	r3, [r2, #0]
	GPIOB->MODER |= (0b11 << 4);
 80003fc:	4b16      	ldr	r3, [pc, #88]	@ (8000458 <COMP4_Init_v2+0x9c>)
 80003fe:	681b      	ldr	r3, [r3, #0]
 8000400:	4a15      	ldr	r2, [pc, #84]	@ (8000458 <COMP4_Init_v2+0x9c>)
 8000402:	f043 0330 	orr.w	r3, r3, #48	@ 0x30
 8000406:	6013      	str	r3, [r2, #0]

	// Disable pull-up/pull-down
	GPIOB->PUPDR &= ~(0b11 << 0);
 8000408:	4b13      	ldr	r3, [pc, #76]	@ (8000458 <COMP4_Init_v2+0x9c>)
 800040a:	68db      	ldr	r3, [r3, #12]
 800040c:	4a12      	ldr	r2, [pc, #72]	@ (8000458 <COMP4_Init_v2+0x9c>)
 800040e:	f023 0303 	bic.w	r3, r3, #3
 8000412:	60d3      	str	r3, [r2, #12]
	GPIOB->PUPDR &= ~(0b11 << 4);
 8000414:	4b10      	ldr	r3, [pc, #64]	@ (8000458 <COMP4_Init_v2+0x9c>)
 8000416:	68db      	ldr	r3, [r3, #12]
 8000418:	4a0f      	ldr	r2, [pc, #60]	@ (8000458 <COMP4_Init_v2+0x9c>)
 800041a:	f023 0330 	bic.w	r3, r3, #48	@ 0x30
 800041e:	60d3      	str	r3, [r2, #12]

	// Init COMP4
	// Clear CSR
	COMP4->CSR = 0;
 8000420:	4b0e      	ldr	r3, [pc, #56]	@ (800045c <COMP4_Init_v2+0xa0>)
 8000422:	2200      	movs	r2, #0
 8000424:	601a      	str	r2, [r3, #0]
	// Set COMP4_INP input to PB0+
	COMP4->CSR &= ~COMP_CSR_INPSEL;
 8000426:	4b0d      	ldr	r3, [pc, #52]	@ (800045c <COMP4_Init_v2+0xa0>)
 8000428:	681b      	ldr	r3, [r3, #0]
 800042a:	4a0c      	ldr	r2, [pc, #48]	@ (800045c <COMP4_Init_v2+0xa0>)
 800042c:	f423 7380 	bic.w	r3, r3, #256	@ 0x100
 8000430:	6013      	str	r3, [r2, #0]
	// Set COMP4_INM input to PB2-
	COMP4->CSR |= (0b111 << 4);
 8000432:	4b0a      	ldr	r3, [pc, #40]	@ (800045c <COMP4_Init_v2+0xa0>)
 8000434:	681b      	ldr	r3, [r3, #0]
 8000436:	4a09      	ldr	r2, [pc, #36]	@ (800045c <COMP4_Init_v2+0xa0>)
 8000438:	f043 0370 	orr.w	r3, r3, #112	@ 0x70
 800043c:	6013      	str	r3, [r2, #0]
	// Enable COMP4
	COMP4->CSR |= COMP_CSR_EN;
 800043e:	4b07      	ldr	r3, [pc, #28]	@ (800045c <COMP4_Init_v2+0xa0>)
 8000440:	681b      	ldr	r3, [r3, #0]
 8000442:	4a06      	ldr	r2, [pc, #24]	@ (800045c <COMP4_Init_v2+0xa0>)
 8000444:	f043 0301 	orr.w	r3, r3, #1
 8000448:	6013      	str	r3, [r2, #0]
}
 800044a:	bf00      	nop
 800044c:	46bd      	mov	sp, r7
 800044e:	f85d 7b04 	ldr.w	r7, [sp], #4
 8000452:	4770      	bx	lr
 8000454:	40021000 	.word	0x40021000
 8000458:	48000400 	.word	0x48000400
 800045c:	4001020c 	.word	0x4001020c

08000460 <Disable_All_COMP_Interrupts>:

	NVIC_EnableIRQ(COMP4_IRQn);
	NVIC_SetPriority(COMP4_IRQn, 1);
}

void Disable_All_COMP_Interrupts(void){
 8000460:	b580      	push	{r7, lr}
 8000462:	af00      	add	r7, sp, #0
	NVIC_DisableIRQ(COMP1_2_3_IRQn);
 8000464:	2040      	movs	r0, #64	@ 0x40
 8000466:	f7ff fed7 	bl	8000218 <__NVIC_DisableIRQ>
	NVIC_DisableIRQ(COMP4_IRQn);
 800046a:	2041      	movs	r0, #65	@ 0x41
 800046c:	f7ff fed4 	bl	8000218 <__NVIC_DisableIRQ>
}
 8000470:	bf00      	nop
 8000472:	bd80      	pop	{r7, pc}

08000474 <COMP1_2_3_IRQHandler>:

// This is what's called when COMP1,2,3 (Phase 1 & 2) interrupts are triggered
void COMP1_2_3_IRQHandler(void){
 8000474:	b580      	push	{r7, lr}
 8000476:	af00      	add	r7, sp, #0
	// Phase 2: COMP3
	if (EXTI->PR1 & EXTI_PR1_PIF29){
 8000478:	4b20      	ldr	r3, [pc, #128]	@ (80004fc <COMP1_2_3_IRQHandler+0x88>)
 800047a:	695b      	ldr	r3, [r3, #20]
 800047c:	f003 5300 	and.w	r3, r3, #536870912	@ 0x20000000
 8000480:	2b00      	cmp	r3, #0
 8000482:	d019      	beq.n	80004b8 <COMP1_2_3_IRQHandler+0x44>
		EXTI->PR1 |= EXTI_PR1_PIF29;
 8000484:	4b1d      	ldr	r3, [pc, #116]	@ (80004fc <COMP1_2_3_IRQHandler+0x88>)
 8000486:	695b      	ldr	r3, [r3, #20]
 8000488:	4a1c      	ldr	r2, [pc, #112]	@ (80004fc <COMP1_2_3_IRQHandler+0x88>)
 800048a:	f043 5300 	orr.w	r3, r3, #536870912	@ 0x20000000
 800048e:	6153      	str	r3, [r2, #20]

		switch(COMP_Phase_State){
 8000490:	4b1b      	ldr	r3, [pc, #108]	@ (8000500 <COMP1_2_3_IRQHandler+0x8c>)
 8000492:	881b      	ldrh	r3, [r3, #0]
 8000494:	b29b      	uxth	r3, r3
 8000496:	2b02      	cmp	r3, #2
 8000498:	d002      	beq.n	80004a0 <COMP1_2_3_IRQHandler+0x2c>
 800049a:	2b05      	cmp	r3, #5
 800049c:	d006      	beq.n	80004ac <COMP1_2_3_IRQHandler+0x38>
 800049e:	e00b      	b.n	80004b8 <COMP1_2_3_IRQHandler+0x44>
			case 2:
				// Disable interrupts. Prevent double fire
				Disable_All_COMP_Interrupts();
 80004a0:	f7ff ffde 	bl	8000460 <Disable_All_COMP_Interrupts>

				COMP_Phase_State = 3;
 80004a4:	4b16      	ldr	r3, [pc, #88]	@ (8000500 <COMP1_2_3_IRQHandler+0x8c>)
 80004a6:	2203      	movs	r2, #3
 80004a8:	801a      	strh	r2, [r3, #0]
				break;
 80004aa:	e005      	b.n	80004b8 <COMP1_2_3_IRQHandler+0x44>

			case 5:
				// Disable interrupts. Prevent double fire
				Disable_All_COMP_Interrupts();
 80004ac:	f7ff ffd8 	bl	8000460 <Disable_All_COMP_Interrupts>

				// Go to next state
				COMP_Phase_State = 6;
 80004b0:	4b13      	ldr	r3, [pc, #76]	@ (8000500 <COMP1_2_3_IRQHandler+0x8c>)
 80004b2:	2206      	movs	r2, #6
 80004b4:	801a      	strh	r2, [r3, #0]
				break;
 80004b6:	bf00      	nop
		}
	}
	// Phase 1: COMP1
	if (EXTI->PR1 & EXTI_PR1_PIF21){
 80004b8:	4b10      	ldr	r3, [pc, #64]	@ (80004fc <COMP1_2_3_IRQHandler+0x88>)
 80004ba:	695b      	ldr	r3, [r3, #20]
 80004bc:	f403 1300 	and.w	r3, r3, #2097152	@ 0x200000
 80004c0:	2b00      	cmp	r3, #0
 80004c2:	d019      	beq.n	80004f8 <COMP1_2_3_IRQHandler+0x84>
		EXTI->PR1 |= EXTI_PR1_PIF21;
 80004c4:	4b0d      	ldr	r3, [pc, #52]	@ (80004fc <COMP1_2_3_IRQHandler+0x88>)
 80004c6:	695b      	ldr	r3, [r3, #20]
 80004c8:	4a0c      	ldr	r2, [pc, #48]	@ (80004fc <COMP1_2_3_IRQHandler+0x88>)
 80004ca:	f443 1300 	orr.w	r3, r3, #2097152	@ 0x200000
 80004ce:	6153      	str	r3, [r2, #20]

		switch(COMP_Phase_State){
 80004d0:	4b0b      	ldr	r3, [pc, #44]	@ (8000500 <COMP1_2_3_IRQHandler+0x8c>)
 80004d2:	881b      	ldrh	r3, [r3, #0]
 80004d4:	b29b      	uxth	r3, r3
 80004d6:	2b03      	cmp	r3, #3
 80004d8:	d002      	beq.n	80004e0 <COMP1_2_3_IRQHandler+0x6c>
 80004da:	2b06      	cmp	r3, #6
 80004dc:	d006      	beq.n	80004ec <COMP1_2_3_IRQHandler+0x78>
				// Go to next state
				COMP_Phase_State = 1;
				break;
		}
	}
}
 80004de:	e00b      	b.n	80004f8 <COMP1_2_3_IRQHandler+0x84>
				Disable_All_COMP_Interrupts();
 80004e0:	f7ff ffbe 	bl	8000460 <Disable_All_COMP_Interrupts>
				COMP_Phase_State = 4;
 80004e4:	4b06      	ldr	r3, [pc, #24]	@ (8000500 <COMP1_2_3_IRQHandler+0x8c>)
 80004e6:	2204      	movs	r2, #4
 80004e8:	801a      	strh	r2, [r3, #0]
				break;
 80004ea:	e005      	b.n	80004f8 <COMP1_2_3_IRQHandler+0x84>
				Disable_All_COMP_Interrupts();
 80004ec:	f7ff ffb8 	bl	8000460 <Disable_All_COMP_Interrupts>
				COMP_Phase_State = 1;
 80004f0:	4b03      	ldr	r3, [pc, #12]	@ (8000500 <COMP1_2_3_IRQHandler+0x8c>)
 80004f2:	2201      	movs	r2, #1
 80004f4:	801a      	strh	r2, [r3, #0]
				break;
 80004f6:	bf00      	nop
}
 80004f8:	bf00      	nop
 80004fa:	bd80      	pop	{r7, pc}
 80004fc:	40010400 	.word	0x40010400
 8000500:	20000000 	.word	0x20000000

08000504 <COMP4_IRQHandler>:

// This is what's called when COMP4 (Phase 3) interrupt is triggered
void COMP4_IRQHandler(void){
 8000504:	b580      	push	{r7, lr}
 8000506:	af00      	add	r7, sp, #0
	// Phase 3
	if (EXTI->PR1 & EXTI_PR1_PIF30) {
 8000508:	4b0f      	ldr	r3, [pc, #60]	@ (8000548 <COMP4_IRQHandler+0x44>)
 800050a:	695b      	ldr	r3, [r3, #20]
 800050c:	f003 4380 	and.w	r3, r3, #1073741824	@ 0x40000000
 8000510:	2b00      	cmp	r3, #0
 8000512:	d017      	beq.n	8000544 <COMP4_IRQHandler+0x40>
		// Clear pending flag (write 1 to clear)
		EXTI->PR1 |= EXTI_PR1_PIF30;
 8000514:	4b0c      	ldr	r3, [pc, #48]	@ (8000548 <COMP4_IRQHandler+0x44>)
 8000516:	695b      	ldr	r3, [r3, #20]
 8000518:	4a0b      	ldr	r2, [pc, #44]	@ (8000548 <COMP4_IRQHandler+0x44>)
 800051a:	f043 4380 	orr.w	r3, r3, #1073741824	@ 0x40000000
 800051e:	6153      	str	r3, [r2, #20]

		// Disable interrupts. Prevent double fire
		Disable_All_COMP_Interrupts();
 8000520:	f7ff ff9e 	bl	8000460 <Disable_All_COMP_Interrupts>

		switch(COMP_Phase_State){
 8000524:	4b09      	ldr	r3, [pc, #36]	@ (800054c <COMP4_IRQHandler+0x48>)
 8000526:	881b      	ldrh	r3, [r3, #0]
 8000528:	b29b      	uxth	r3, r3
 800052a:	2b01      	cmp	r3, #1
 800052c:	d002      	beq.n	8000534 <COMP4_IRQHandler+0x30>
 800052e:	2b04      	cmp	r3, #4
 8000530:	d004      	beq.n	800053c <COMP4_IRQHandler+0x38>
			case 4:
				COMP_Phase_State = 5;
				break;
		}
	}
}
 8000532:	e007      	b.n	8000544 <COMP4_IRQHandler+0x40>
				COMP_Phase_State = 2;
 8000534:	4b05      	ldr	r3, [pc, #20]	@ (800054c <COMP4_IRQHandler+0x48>)
 8000536:	2202      	movs	r2, #2
 8000538:	801a      	strh	r2, [r3, #0]
				break;
 800053a:	e003      	b.n	8000544 <COMP4_IRQHandler+0x40>
				COMP_Phase_State = 5;
 800053c:	4b03      	ldr	r3, [pc, #12]	@ (800054c <COMP4_IRQHandler+0x48>)
 800053e:	2205      	movs	r2, #5
 8000540:	801a      	strh	r2, [r3, #0]
				break;
 8000542:	bf00      	nop
}
 8000544:	bf00      	nop
 8000546:	bd80      	pop	{r7, pc}
 8000548:	40010400 	.word	0x40010400
 800054c:	20000000 	.word	0x20000000

08000550 <SPI2_Master_Init>:
*	PB12 -> GPIOx (General output)    ->        SPI2_NSS (Chip select)
*   PB13 -> SPI2_SCLK (Clock)         ->        SPI2_SCLK (Clock)
*	PB15 -> SPI2_MOSI (Tx)            ->        PB14 -> SPI2_MISO (Rx)
*	PB14 -> SPI2_MISO (Rx)            <-        PB15 -> SPI2_MOSI (Tx)
*/
void SPI2_Master_Init(void){
 8000550:	b480      	push	{r7}
 8000552:	af00      	add	r7, sp, #0
	// Init Clk access to GPIOB and SPI2
	RCC->AHB2ENR |= RCC_AHB2ENR_GPIOBEN;
 8000554:	4b3c      	ldr	r3, [pc, #240]	@ (8000648 <SPI2_Master_Init+0xf8>)
 8000556:	6cdb      	ldr	r3, [r3, #76]	@ 0x4c
 8000558:	4a3b      	ldr	r2, [pc, #236]	@ (8000648 <SPI2_Master_Init+0xf8>)
 800055a:	f043 0302 	orr.w	r3, r3, #2
 800055e:	64d3      	str	r3, [r2, #76]	@ 0x4c
	RCC->APB1ENR1 |= RCC_APB1ENR1_SPI2EN;
 8000560:	4b39      	ldr	r3, [pc, #228]	@ (8000648 <SPI2_Master_Init+0xf8>)
 8000562:	6d9b      	ldr	r3, [r3, #88]	@ 0x58
 8000564:	4a38      	ldr	r2, [pc, #224]	@ (8000648 <SPI2_Master_Init+0xf8>)
 8000566:	f443 4380 	orr.w	r3, r3, #16384	@ 0x4000
 800056a:	6593      	str	r3, [r2, #88]	@ 0x58

	// Config pins to Alt Funct Mode
	GPIOB->MODER &= ~((0b11 << 24) | (0b11 << 26) | (0b11 << 28) | (0b11 << 30));
 800056c:	4b37      	ldr	r3, [pc, #220]	@ (800064c <SPI2_Master_Init+0xfc>)
 800056e:	681b      	ldr	r3, [r3, #0]
 8000570:	4a36      	ldr	r2, [pc, #216]	@ (800064c <SPI2_Master_Init+0xfc>)
 8000572:	f023 437f 	bic.w	r3, r3, #4278190080	@ 0xff000000
 8000576:	6013      	str	r3, [r2, #0]
	GPIOB->MODER |= (0b01 << 24);  // PB12 == Gen Purpose Output
 8000578:	4b34      	ldr	r3, [pc, #208]	@ (800064c <SPI2_Master_Init+0xfc>)
 800057a:	681b      	ldr	r3, [r3, #0]
 800057c:	4a33      	ldr	r2, [pc, #204]	@ (800064c <SPI2_Master_Init+0xfc>)
 800057e:	f043 7380 	orr.w	r3, r3, #16777216	@ 0x1000000
 8000582:	6013      	str	r3, [r2, #0]
	GPIOB->MODER |= (0b10 << 26);  // PB13
 8000584:	4b31      	ldr	r3, [pc, #196]	@ (800064c <SPI2_Master_Init+0xfc>)
 8000586:	681b      	ldr	r3, [r3, #0]
 8000588:	4a30      	ldr	r2, [pc, #192]	@ (800064c <SPI2_Master_Init+0xfc>)
 800058a:	f043 6300 	orr.w	r3, r3, #134217728	@ 0x8000000
 800058e:	6013      	str	r3, [r2, #0]
	GPIOB->MODER |= (0b10 << 28);  // PB14
 8000590:	4b2e      	ldr	r3, [pc, #184]	@ (800064c <SPI2_Master_Init+0xfc>)
 8000592:	681b      	ldr	r3, [r3, #0]
 8000594:	4a2d      	ldr	r2, [pc, #180]	@ (800064c <SPI2_Master_Init+0xfc>)
 8000596:	f043 5300 	orr.w	r3, r3, #536870912	@ 0x20000000
 800059a:	6013      	str	r3, [r2, #0]
	GPIOB->MODER |= (0b10 << 30);  // PB15
 800059c:	4b2b      	ldr	r3, [pc, #172]	@ (800064c <SPI2_Master_Init+0xfc>)
 800059e:	681b      	ldr	r3, [r3, #0]
 80005a0:	4a2a      	ldr	r2, [pc, #168]	@ (800064c <SPI2_Master_Init+0xfc>)
 80005a2:	f043 4300 	orr.w	r3, r3, #2147483648	@ 0x80000000
 80005a6:	6013      	str	r3, [r2, #0]

	GPIOB->AFR[1] &= ~(0b1111 << 20 | 0b1111 << 24 | 0b1111 << 28);
 80005a8:	4b28      	ldr	r3, [pc, #160]	@ (800064c <SPI2_Master_Init+0xfc>)
 80005aa:	6a5b      	ldr	r3, [r3, #36]	@ 0x24
 80005ac:	4a27      	ldr	r2, [pc, #156]	@ (800064c <SPI2_Master_Init+0xfc>)
 80005ae:	f3c3 0313 	ubfx	r3, r3, #0, #20
 80005b2:	6253      	str	r3, [r2, #36]	@ 0x24
	GPIOB->AFR[1] |= (0b0101 << 20); // PB13
 80005b4:	4b25      	ldr	r3, [pc, #148]	@ (800064c <SPI2_Master_Init+0xfc>)
 80005b6:	6a5b      	ldr	r3, [r3, #36]	@ 0x24
 80005b8:	4a24      	ldr	r2, [pc, #144]	@ (800064c <SPI2_Master_Init+0xfc>)
 80005ba:	f443 03a0 	orr.w	r3, r3, #5242880	@ 0x500000
 80005be:	6253      	str	r3, [r2, #36]	@ 0x24
	GPIOB->AFR[1] |= (0b0101 << 24); // PB14
 80005c0:	4b22      	ldr	r3, [pc, #136]	@ (800064c <SPI2_Master_Init+0xfc>)
 80005c2:	6a5b      	ldr	r3, [r3, #36]	@ 0x24
 80005c4:	4a21      	ldr	r2, [pc, #132]	@ (800064c <SPI2_Master_Init+0xfc>)
 80005c6:	f043 63a0 	orr.w	r3, r3, #83886080	@ 0x5000000
 80005ca:	6253      	str	r3, [r2, #36]	@ 0x24
	GPIOB->AFR[1] |= (0b0101 << 28); // PB15
 80005cc:	4b1f      	ldr	r3, [pc, #124]	@ (800064c <SPI2_Master_Init+0xfc>)
 80005ce:	6a5b      	ldr	r3, [r3, #36]	@ 0x24
 80005d0:	4a1e      	ldr	r2, [pc, #120]	@ (800064c <SPI2_Master_Init+0xfc>)
 80005d2:	f043 43a0 	orr.w	r3, r3, #1342177280	@ 0x50000000
 80005d6:	6253      	str	r3, [r2, #36]	@ 0x24

	// Config SPI2_CR1 register
	SPI2->CR1 |= SPI_CR1_MSTR;     // Set to master
 80005d8:	4b1d      	ldr	r3, [pc, #116]	@ (8000650 <SPI2_Master_Init+0x100>)
 80005da:	681b      	ldr	r3, [r3, #0]
 80005dc:	4a1c      	ldr	r2, [pc, #112]	@ (8000650 <SPI2_Master_Init+0x100>)
 80005de:	f043 0304 	orr.w	r3, r3, #4
 80005e2:	6013      	str	r3, [r2, #0]
	SPI2->CR1 |= (0b011 << 3);     // Baud rate == F_PCLK/16
 80005e4:	4b1a      	ldr	r3, [pc, #104]	@ (8000650 <SPI2_Master_Init+0x100>)
 80005e6:	681b      	ldr	r3, [r3, #0]
 80005e8:	4a19      	ldr	r2, [pc, #100]	@ (8000650 <SPI2_Master_Init+0x100>)
 80005ea:	f043 0318 	orr.w	r3, r3, #24
 80005ee:	6013      	str	r3, [r2, #0]
	SPI2->CR1 |= SPI_CR1_SSM;      // Software slave management enabled
 80005f0:	4b17      	ldr	r3, [pc, #92]	@ (8000650 <SPI2_Master_Init+0x100>)
 80005f2:	681b      	ldr	r3, [r3, #0]
 80005f4:	4a16      	ldr	r2, [pc, #88]	@ (8000650 <SPI2_Master_Init+0x100>)
 80005f6:	f443 7300 	orr.w	r3, r3, #512	@ 0x200
 80005fa:	6013      	str	r3, [r2, #0]
	SPI2->CR1 |= SPI_CR1_SSI;      // Internal slave select
 80005fc:	4b14      	ldr	r3, [pc, #80]	@ (8000650 <SPI2_Master_Init+0x100>)
 80005fe:	681b      	ldr	r3, [r3, #0]
 8000600:	4a13      	ldr	r2, [pc, #76]	@ (8000650 <SPI2_Master_Init+0x100>)
 8000602:	f443 7380 	orr.w	r3, r3, #256	@ 0x100
 8000606:	6013      	str	r3, [r2, #0]
	SPI2->CR1 &= ~(SPI_CR1_CPOL | SPI_CR1_CPHA); // Mode 0
 8000608:	4b11      	ldr	r3, [pc, #68]	@ (8000650 <SPI2_Master_Init+0x100>)
 800060a:	681b      	ldr	r3, [r3, #0]
 800060c:	4a10      	ldr	r2, [pc, #64]	@ (8000650 <SPI2_Master_Init+0x100>)
 800060e:	f023 0303 	bic.w	r3, r3, #3
 8000612:	6013      	str	r3, [r2, #0]

	// Config SPI2_CR2 register
	SPI2->CR2 = 0;
 8000614:	4b0e      	ldr	r3, [pc, #56]	@ (8000650 <SPI2_Master_Init+0x100>)
 8000616:	2200      	movs	r2, #0
 8000618:	605a      	str	r2, [r3, #4]
	SPI2->CR2 |= (0b0111 << 8);
 800061a:	4b0d      	ldr	r3, [pc, #52]	@ (8000650 <SPI2_Master_Init+0x100>)
 800061c:	685b      	ldr	r3, [r3, #4]
 800061e:	4a0c      	ldr	r2, [pc, #48]	@ (8000650 <SPI2_Master_Init+0x100>)
 8000620:	f443 63e0 	orr.w	r3, r3, #1792	@ 0x700
 8000624:	6053      	str	r3, [r2, #4]

	// Enable SPI2
	SPI2->CR1 |= SPI_CR1_SPE;
 8000626:	4b0a      	ldr	r3, [pc, #40]	@ (8000650 <SPI2_Master_Init+0x100>)
 8000628:	681b      	ldr	r3, [r3, #0]
 800062a:	4a09      	ldr	r2, [pc, #36]	@ (8000650 <SPI2_Master_Init+0x100>)
 800062c:	f043 0340 	orr.w	r3, r3, #64	@ 0x40
 8000630:	6013      	str	r3, [r2, #0]
	GPIOB->ODR |= SPI2_PB12_MASTER_CS; // Set NSS high (slave) inactive
 8000632:	4b06      	ldr	r3, [pc, #24]	@ (800064c <SPI2_Master_Init+0xfc>)
 8000634:	695b      	ldr	r3, [r3, #20]
 8000636:	4a05      	ldr	r2, [pc, #20]	@ (800064c <SPI2_Master_Init+0xfc>)
 8000638:	f443 5380 	orr.w	r3, r3, #4096	@ 0x1000
 800063c:	6153      	str	r3, [r2, #20]
}
 800063e:	bf00      	nop
 8000640:	46bd      	mov	sp, r7
 8000642:	f85d 7b04 	ldr.w	r7, [sp], #4
 8000646:	4770      	bx	lr
 8000648:	40021000 	.word	0x40021000
 800064c:	48000400 	.word	0x48000400
 8000650:	40003800 	.word	0x40003800

08000654 <SPI2_TX_RX>:

// Sends and receives data
uint8_t SPI2_TX_RX(uint8_t data){
 8000654:	b580      	push	{r7, lr}
 8000656:	b084      	sub	sp, #16
 8000658:	af00      	add	r7, sp, #0
 800065a:	4603      	mov	r3, r0
 800065c:	71fb      	strb	r3, [r7, #7]
	uint32_t Timeout_Tx = 100000;
 800065e:	4b19      	ldr	r3, [pc, #100]	@ (80006c4 <SPI2_TX_RX+0x70>)
 8000660:	60fb      	str	r3, [r7, #12]
	uint32_t Timeout_Rx = 100000;
 8000662:	4b18      	ldr	r3, [pc, #96]	@ (80006c4 <SPI2_TX_RX+0x70>)
 8000664:	60bb      	str	r3, [r7, #8]

	// Wait for TX buffer empty
    while(!(SPI2->SR & SPI_SR_TXE)){
 8000666:	e00a      	b.n	800067e <SPI2_TX_RX+0x2a>
        if (--Timeout_Tx == 0) {
 8000668:	68fb      	ldr	r3, [r7, #12]
 800066a:	3b01      	subs	r3, #1
 800066c:	60fb      	str	r3, [r7, #12]
 800066e:	68fb      	ldr	r3, [r7, #12]
 8000670:	2b00      	cmp	r3, #0
 8000672:	d104      	bne.n	800067e <SPI2_TX_RX+0x2a>
            printf("Master TXE Timeout \r\n");
 8000674:	4814      	ldr	r0, [pc, #80]	@ (80006c8 <SPI2_TX_RX+0x74>)
 8000676:	f001 fb0d 	bl	8001c94 <puts>
            return 0;
 800067a:	2300      	movs	r3, #0
 800067c:	e01d      	b.n	80006ba <SPI2_TX_RX+0x66>
    while(!(SPI2->SR & SPI_SR_TXE)){
 800067e:	4b13      	ldr	r3, [pc, #76]	@ (80006cc <SPI2_TX_RX+0x78>)
 8000680:	689b      	ldr	r3, [r3, #8]
 8000682:	f003 0302 	and.w	r3, r3, #2
 8000686:	2b00      	cmp	r3, #0
 8000688:	d0ee      	beq.n	8000668 <SPI2_TX_RX+0x14>
        }
    }
    // Write data
    *((__IO uint8_t*)&SPI2->DR) = data;
 800068a:	4a11      	ldr	r2, [pc, #68]	@ (80006d0 <SPI2_TX_RX+0x7c>)
 800068c:	79fb      	ldrb	r3, [r7, #7]
 800068e:	7013      	strb	r3, [r2, #0]

    // Wait for RX buffer not empty
    while(!(SPI2->SR & SPI_SR_RXNE)){
 8000690:	e00a      	b.n	80006a8 <SPI2_TX_RX+0x54>
        if (--Timeout_Rx == 0) {
 8000692:	68bb      	ldr	r3, [r7, #8]
 8000694:	3b01      	subs	r3, #1
 8000696:	60bb      	str	r3, [r7, #8]
 8000698:	68bb      	ldr	r3, [r7, #8]
 800069a:	2b00      	cmp	r3, #0
 800069c:	d104      	bne.n	80006a8 <SPI2_TX_RX+0x54>
            printf("Master RXNE Timeout\r\n");
 800069e:	480d      	ldr	r0, [pc, #52]	@ (80006d4 <SPI2_TX_RX+0x80>)
 80006a0:	f001 faf8 	bl	8001c94 <puts>
            return 0;
 80006a4:	2300      	movs	r3, #0
 80006a6:	e008      	b.n	80006ba <SPI2_TX_RX+0x66>
    while(!(SPI2->SR & SPI_SR_RXNE)){
 80006a8:	4b08      	ldr	r3, [pc, #32]	@ (80006cc <SPI2_TX_RX+0x78>)
 80006aa:	689b      	ldr	r3, [r3, #8]
 80006ac:	f003 0301 	and.w	r3, r3, #1
 80006b0:	2b00      	cmp	r3, #0
 80006b2:	d0ee      	beq.n	8000692 <SPI2_TX_RX+0x3e>
        }
    }
    // Read received
    return *((__IO uint8_t*)&SPI2->DR);
 80006b4:	4b06      	ldr	r3, [pc, #24]	@ (80006d0 <SPI2_TX_RX+0x7c>)
 80006b6:	781b      	ldrb	r3, [r3, #0]
 80006b8:	b2db      	uxtb	r3, r3
}
 80006ba:	4618      	mov	r0, r3
 80006bc:	3710      	adds	r7, #16
 80006be:	46bd      	mov	sp, r7
 80006c0:	bd80      	pop	{r7, pc}
 80006c2:	bf00      	nop
 80006c4:	000186a0 	.word	0x000186a0
 80006c8:	080023c4 	.word	0x080023c4
 80006cc:	40003800 	.word	0x40003800
 80006d0:	4000380c 	.word	0x4000380c
 80006d4:	080023dc 	.word	0x080023dc

080006d8 <SPI2_TX_Buffer>:

// Send a pointer to a buffer plus a size -> NRF24
void SPI2_TX_Buffer(uint8_t *data, uint8_t size){
 80006d8:	b580      	push	{r7, lr}
 80006da:	b084      	sub	sp, #16
 80006dc:	af00      	add	r7, sp, #0
 80006de:	6078      	str	r0, [r7, #4]
 80006e0:	460b      	mov	r3, r1
 80006e2:	70fb      	strb	r3, [r7, #3]
    for(uint8_t i = 0; i < size; i++){
 80006e4:	2300      	movs	r3, #0
 80006e6:	73fb      	strb	r3, [r7, #15]
 80006e8:	e009      	b.n	80006fe <SPI2_TX_Buffer+0x26>
        SPI2_TX_RX(data[i]);
 80006ea:	7bfb      	ldrb	r3, [r7, #15]
 80006ec:	687a      	ldr	r2, [r7, #4]
 80006ee:	4413      	add	r3, r2
 80006f0:	781b      	ldrb	r3, [r3, #0]
 80006f2:	4618      	mov	r0, r3
 80006f4:	f7ff ffae 	bl	8000654 <SPI2_TX_RX>
    for(uint8_t i = 0; i < size; i++){
 80006f8:	7bfb      	ldrb	r3, [r7, #15]
 80006fa:	3301      	adds	r3, #1
 80006fc:	73fb      	strb	r3, [r7, #15]
 80006fe:	7bfa      	ldrb	r2, [r7, #15]
 8000700:	78fb      	ldrb	r3, [r7, #3]
 8000702:	429a      	cmp	r2, r3
 8000704:	d3f1      	bcc.n	80006ea <SPI2_TX_Buffer+0x12>
    }
}
 8000706:	bf00      	nop
 8000708:	bf00      	nop
 800070a:	3710      	adds	r7, #16
 800070c:	46bd      	mov	sp, r7
 800070e:	bd80      	pop	{r7, pc}

08000710 <USART1_ReadChar>:
    USART1->BRR = SystemCoreClock / BAUD_RATE;  // Set Baud rate (9600), assuming 16MHz Clk
    USART1->CR1 = USART_CR1_RE | USART_CR1_UE;  // Enable transmitter and USART
}

// Function for receiving data (characters)
char USART1_ReadChar(void) {
 8000710:	b480      	push	{r7}
 8000712:	af00      	add	r7, sp, #0
    while (!(USART1->ISR & USART_ISR_RXNE));  // Wait for data
 8000714:	bf00      	nop
 8000716:	4b07      	ldr	r3, [pc, #28]	@ (8000734 <USART1_ReadChar+0x24>)
 8000718:	69db      	ldr	r3, [r3, #28]
 800071a:	f003 0320 	and.w	r3, r3, #32
 800071e:	2b00      	cmp	r3, #0
 8000720:	d0f9      	beq.n	8000716 <USART1_ReadChar+0x6>

    return (char)(USART1->RDR & 0xFF);        // Read char
 8000722:	4b04      	ldr	r3, [pc, #16]	@ (8000734 <USART1_ReadChar+0x24>)
 8000724:	6a5b      	ldr	r3, [r3, #36]	@ 0x24
 8000726:	b2db      	uxtb	r3, r3
}
 8000728:	4618      	mov	r0, r3
 800072a:	46bd      	mov	sp, r7
 800072c:	f85d 7b04 	ldr.w	r7, [sp], #4
 8000730:	4770      	bx	lr
 8000732:	bf00      	nop
 8000734:	40013800 	.word	0x40013800

08000738 <__io_getchar>:

// Overrides scanf()
int __io_getchar(void) {
 8000738:	b580      	push	{r7, lr}
 800073a:	af00      	add	r7, sp, #0
    return USART1_ReadChar();
 800073c:	f7ff ffe8 	bl	8000710 <USART1_ReadChar>
 8000740:	4603      	mov	r3, r0
}
 8000742:	4618      	mov	r0, r3
 8000744:	bd80      	pop	{r7, pc}
	...

08000748 <USART2_PA2_Init>:
#define BAUD_RATE  9600
#define PUTCHAR_PROTOTYPE int __io_putchar(int ch)


// Configure PA2 for USART2
void USART2_PA2_Init(void){
 8000748:	b480      	push	{r7}
 800074a:	af00      	add	r7, sp, #0
    // Enable GPIOA Clk and USART2 Clk
    RCC->AHB2ENR |= (1 << 0);
 800074c:	4b1d      	ldr	r3, [pc, #116]	@ (80007c4 <USART2_PA2_Init+0x7c>)
 800074e:	6cdb      	ldr	r3, [r3, #76]	@ 0x4c
 8000750:	4a1c      	ldr	r2, [pc, #112]	@ (80007c4 <USART2_PA2_Init+0x7c>)
 8000752:	f043 0301 	orr.w	r3, r3, #1
 8000756:	64d3      	str	r3, [r2, #76]	@ 0x4c
    RCC->APB1ENR1 |= (1 << 17);
 8000758:	4b1a      	ldr	r3, [pc, #104]	@ (80007c4 <USART2_PA2_Init+0x7c>)
 800075a:	6d9b      	ldr	r3, [r3, #88]	@ 0x58
 800075c:	4a19      	ldr	r2, [pc, #100]	@ (80007c4 <USART2_PA2_Init+0x7c>)
 800075e:	f443 3300 	orr.w	r3, r3, #131072	@ 0x20000
 8000762:	6593      	str	r3, [r2, #88]	@ 0x58
    //RCC->APB1SMENR1 |= (1 << 17);

    // Configure PA2 as AF7 (USART2_TX)
    GPIOA->MODER &= ~(0b11 << 4);
 8000764:	f04f 4390 	mov.w	r3, #1207959552	@ 0x48000000
 8000768:	681b      	ldr	r3, [r3, #0]
 800076a:	f04f 4290 	mov.w	r2, #1207959552	@ 0x48000000
 800076e:	f023 0330 	bic.w	r3, r3, #48	@ 0x30
 8000772:	6013      	str	r3, [r2, #0]
    GPIOA->MODER |=  (0b10 << 4);    // Set PA2 to Alt Funct Mode
 8000774:	f04f 4390 	mov.w	r3, #1207959552	@ 0x48000000
 8000778:	681b      	ldr	r3, [r3, #0]
 800077a:	f04f 4290 	mov.w	r2, #1207959552	@ 0x48000000
 800077e:	f043 0320 	orr.w	r3, r3, #32
 8000782:	6013      	str	r3, [r2, #0]
    GPIOA->AFR[0] &= ~(0b1111 << 8);
 8000784:	f04f 4390 	mov.w	r3, #1207959552	@ 0x48000000
 8000788:	6a1b      	ldr	r3, [r3, #32]
 800078a:	f04f 4290 	mov.w	r2, #1207959552	@ 0x48000000
 800078e:	f423 6370 	bic.w	r3, r3, #3840	@ 0xf00
 8000792:	6213      	str	r3, [r2, #32]
    GPIOA->AFR[0] |=  (0b0111 << 8);  // Sets AFM to AF7
 8000794:	f04f 4390 	mov.w	r3, #1207959552	@ 0x48000000
 8000798:	6a1b      	ldr	r3, [r3, #32]
 800079a:	f04f 4290 	mov.w	r2, #1207959552	@ 0x48000000
 800079e:	f443 63e0 	orr.w	r3, r3, #1792	@ 0x700
 80007a2:	6213      	str	r3, [r2, #32]

    // Configure USART2
    USART2->BRR = SystemCoreClock / BAUD_RATE;  // Set Baud rate (9600), assuming 16MHz Clk
 80007a4:	4b08      	ldr	r3, [pc, #32]	@ (80007c8 <USART2_PA2_Init+0x80>)
 80007a6:	681b      	ldr	r3, [r3, #0]
 80007a8:	4a08      	ldr	r2, [pc, #32]	@ (80007cc <USART2_PA2_Init+0x84>)
 80007aa:	4909      	ldr	r1, [pc, #36]	@ (80007d0 <USART2_PA2_Init+0x88>)
 80007ac:	fba1 1303 	umull	r1, r3, r1, r3
 80007b0:	0a9b      	lsrs	r3, r3, #10
 80007b2:	60d3      	str	r3, [r2, #12]
    //USART2->BRR = 16000000 / BAUD_RATE;
    USART2->CR1 = USART_CR1_TE | USART_CR1_UE;  // Enable transmitter and USART
 80007b4:	4b05      	ldr	r3, [pc, #20]	@ (80007cc <USART2_PA2_Init+0x84>)
 80007b6:	2209      	movs	r2, #9
 80007b8:	601a      	str	r2, [r3, #0]
}
 80007ba:	bf00      	nop
 80007bc:	46bd      	mov	sp, r7
 80007be:	f85d 7b04 	ldr.w	r7, [sp], #4
 80007c2:	4770      	bx	lr
 80007c4:	40021000 	.word	0x40021000
 80007c8:	20000004 	.word	0x20000004
 80007cc:	40004400 	.word	0x40004400
 80007d0:	1b4e81b5 	.word	0x1b4e81b5

080007d4 <USART2_Write>:

// Function for sending data (characters)
void USART2_Write(char ch) {
 80007d4:	b480      	push	{r7}
 80007d6:	b083      	sub	sp, #12
 80007d8:	af00      	add	r7, sp, #0
 80007da:	4603      	mov	r3, r0
 80007dc:	71fb      	strb	r3, [r7, #7]
    while (!(USART2->ISR & USART_ISR_TXE));  // Wait until transmit data register empty
 80007de:	bf00      	nop
 80007e0:	4b07      	ldr	r3, [pc, #28]	@ (8000800 <USART2_Write+0x2c>)
 80007e2:	69db      	ldr	r3, [r3, #28]
 80007e4:	f003 0380 	and.w	r3, r3, #128	@ 0x80
 80007e8:	2b00      	cmp	r3, #0
 80007ea:	d0f9      	beq.n	80007e0 <USART2_Write+0xc>
    USART2->TDR = (ch & 0xFF);              // Send the character
 80007ec:	4a04      	ldr	r2, [pc, #16]	@ (8000800 <USART2_Write+0x2c>)
 80007ee:	79fb      	ldrb	r3, [r7, #7]
 80007f0:	6293      	str	r3, [r2, #40]	@ 0x28
}
 80007f2:	bf00      	nop
 80007f4:	370c      	adds	r7, #12
 80007f6:	46bd      	mov	sp, r7
 80007f8:	f85d 7b04 	ldr.w	r7, [sp], #4
 80007fc:	4770      	bx	lr
 80007fe:	bf00      	nop
 8000800:	40004400 	.word	0x40004400

08000804 <__io_putchar>:

// Overrides printf function
int __io_putchar(int ch) {
 8000804:	b580      	push	{r7, lr}
 8000806:	b082      	sub	sp, #8
 8000808:	af00      	add	r7, sp, #0
 800080a:	6078      	str	r0, [r7, #4]
    USART2_Write(ch);
 800080c:	687b      	ldr	r3, [r7, #4]
 800080e:	b2db      	uxtb	r3, r3
 8000810:	4618      	mov	r0, r3
 8000812:	f7ff ffdf 	bl	80007d4 <USART2_Write>
    return ch;
 8000816:	687b      	ldr	r3, [r7, #4]
}
 8000818:	4618      	mov	r0, r3
 800081a:	3708      	adds	r7, #8
 800081c:	46bd      	mov	sp, r7
 800081e:	bd80      	pop	{r7, pc}

08000820 <PWM_PB7_TIM4_CH2_Init>:
#include "../Communication/USART_printf.h"

volatile uint16_t temp = 0;

// PWM for PB7 (TIM4_CH2 -> AF2)
void PWM_PB7_TIM4_CH2_Init(void){
 8000820:	b480      	push	{r7}
 8000822:	af00      	add	r7, sp, #0
	// Config GPIO
	// Init Clk access to GPIOB
	RCC->AHB2ENR |= RCC_AHB2ENR_GPIOBEN;
 8000824:	4b39      	ldr	r3, [pc, #228]	@ (800090c <PWM_PB7_TIM4_CH2_Init+0xec>)
 8000826:	6cdb      	ldr	r3, [r3, #76]	@ 0x4c
 8000828:	4a38      	ldr	r2, [pc, #224]	@ (800090c <PWM_PB7_TIM4_CH2_Init+0xec>)
 800082a:	f043 0302 	orr.w	r3, r3, #2
 800082e:	64d3      	str	r3, [r2, #76]	@ 0x4c

	// Set PB7 output to Alt Funct Mode
	GPIOB->MODER &= ~(0b11 << 14);
 8000830:	4b37      	ldr	r3, [pc, #220]	@ (8000910 <PWM_PB7_TIM4_CH2_Init+0xf0>)
 8000832:	681b      	ldr	r3, [r3, #0]
 8000834:	4a36      	ldr	r2, [pc, #216]	@ (8000910 <PWM_PB7_TIM4_CH2_Init+0xf0>)
 8000836:	f423 4340 	bic.w	r3, r3, #49152	@ 0xc000
 800083a:	6013      	str	r3, [r2, #0]
	GPIOB->MODER |= (0b10 << 14);      // MODE7 = Alt Funct Mode
 800083c:	4b34      	ldr	r3, [pc, #208]	@ (8000910 <PWM_PB7_TIM4_CH2_Init+0xf0>)
 800083e:	681b      	ldr	r3, [r3, #0]
 8000840:	4a33      	ldr	r2, [pc, #204]	@ (8000910 <PWM_PB7_TIM4_CH2_Init+0xf0>)
 8000842:	f443 4300 	orr.w	r3, r3, #32768	@ 0x8000
 8000846:	6013      	str	r3, [r2, #0]
	GPIOB->AFR[0] &= ~(0b1111 << 28);
 8000848:	4b31      	ldr	r3, [pc, #196]	@ (8000910 <PWM_PB7_TIM4_CH2_Init+0xf0>)
 800084a:	6a1b      	ldr	r3, [r3, #32]
 800084c:	4a30      	ldr	r2, [pc, #192]	@ (8000910 <PWM_PB7_TIM4_CH2_Init+0xf0>)
 800084e:	f023 4370 	bic.w	r3, r3, #4026531840	@ 0xf0000000
 8000852:	6213      	str	r3, [r2, #32]
	GPIOB->AFR[0] |= (0b0010 << 28);   // AFSEL7 set to AF2
 8000854:	4b2e      	ldr	r3, [pc, #184]	@ (8000910 <PWM_PB7_TIM4_CH2_Init+0xf0>)
 8000856:	6a1b      	ldr	r3, [r3, #32]
 8000858:	4a2d      	ldr	r2, [pc, #180]	@ (8000910 <PWM_PB7_TIM4_CH2_Init+0xf0>)
 800085a:	f043 5300 	orr.w	r3, r3, #536870912	@ 0x20000000
 800085e:	6213      	str	r3, [r2, #32]

	// GPIO settings
	GPIOB->OSPEEDR |= (0b10 << 14);    // High speed pin
 8000860:	4b2b      	ldr	r3, [pc, #172]	@ (8000910 <PWM_PB7_TIM4_CH2_Init+0xf0>)
 8000862:	689b      	ldr	r3, [r3, #8]
 8000864:	4a2a      	ldr	r2, [pc, #168]	@ (8000910 <PWM_PB7_TIM4_CH2_Init+0xf0>)
 8000866:	f443 4300 	orr.w	r3, r3, #32768	@ 0x8000
 800086a:	6093      	str	r3, [r2, #8]
	GPIOB->OTYPER &= ~GPIO_OTYPER_OT7; // No Push-pull
 800086c:	4b28      	ldr	r3, [pc, #160]	@ (8000910 <PWM_PB7_TIM4_CH2_Init+0xf0>)
 800086e:	685b      	ldr	r3, [r3, #4]
 8000870:	4a27      	ldr	r2, [pc, #156]	@ (8000910 <PWM_PB7_TIM4_CH2_Init+0xf0>)
 8000872:	f023 0380 	bic.w	r3, r3, #128	@ 0x80
 8000876:	6053      	str	r3, [r2, #4]
	GPIOB->PUPDR  &= ~(0b11 << 14);    // No pull-up/pull-down
 8000878:	4b25      	ldr	r3, [pc, #148]	@ (8000910 <PWM_PB7_TIM4_CH2_Init+0xf0>)
 800087a:	68db      	ldr	r3, [r3, #12]
 800087c:	4a24      	ldr	r2, [pc, #144]	@ (8000910 <PWM_PB7_TIM4_CH2_Init+0xf0>)
 800087e:	f423 4340 	bic.w	r3, r3, #49152	@ 0xc000
 8000882:	60d3      	str	r3, [r2, #12]

	// Config Timer
	// Init Clk access to TIM4
	RCC->APB1ENR1 |= RCC_APB1ENR1_TIM4EN;
 8000884:	4b21      	ldr	r3, [pc, #132]	@ (800090c <PWM_PB7_TIM4_CH2_Init+0xec>)
 8000886:	6d9b      	ldr	r3, [r3, #88]	@ 0x58
 8000888:	4a20      	ldr	r2, [pc, #128]	@ (800090c <PWM_PB7_TIM4_CH2_Init+0xec>)
 800088a:	f043 0304 	orr.w	r3, r3, #4
 800088e:	6593      	str	r3, [r2, #88]	@ 0x58
	// Set TIM4 prescaler
	     // freq = Sys_Clk / (PSC + 1)(ARR + 1)
	     // 100k Hz = 16 Mhz / (0 + 1)(160 + 1)
	     // therefore, set PSC = 0 and ARR = 159

	TIM4->PSC = 0;                   // Clk pre-scaler -> 16MHz / 160 = 100k Hz
 8000890:	4b20      	ldr	r3, [pc, #128]	@ (8000914 <PWM_PB7_TIM4_CH2_Init+0xf4>)
 8000892:	2200      	movs	r2, #0
 8000894:	629a      	str	r2, [r3, #40]	@ 0x28
	TIM4->ARR = 160 - 1;             // Period     (cycle length)
 8000896:	4b1f      	ldr	r3, [pc, #124]	@ (8000914 <PWM_PB7_TIM4_CH2_Init+0xf4>)
 8000898:	229f      	movs	r2, #159	@ 0x9f
 800089a:	62da      	str	r2, [r3, #44]	@ 0x2c
	TIM4->CCR2 = 0;                 // Sets Duty Cycle (ON state) , CCR2 for CH2
 800089c:	4b1d      	ldr	r3, [pc, #116]	@ (8000914 <PWM_PB7_TIM4_CH2_Init+0xf4>)
 800089e:	2200      	movs	r2, #0
 80008a0:	639a      	str	r2, [r3, #56]	@ 0x38

	// Other timer settings
	TIM4->CCMR1 &= ~(0b111 << 12);
 80008a2:	4b1c      	ldr	r3, [pc, #112]	@ (8000914 <PWM_PB7_TIM4_CH2_Init+0xf4>)
 80008a4:	699b      	ldr	r3, [r3, #24]
 80008a6:	4a1b      	ldr	r2, [pc, #108]	@ (8000914 <PWM_PB7_TIM4_CH2_Init+0xf4>)
 80008a8:	f423 43e0 	bic.w	r3, r3, #28672	@ 0x7000
 80008ac:	6193      	str	r3, [r2, #24]
	TIM4->CCMR1 |=  (0b110 << 12);   // CH2 set to PWM mode 1
 80008ae:	4b19      	ldr	r3, [pc, #100]	@ (8000914 <PWM_PB7_TIM4_CH2_Init+0xf4>)
 80008b0:	699b      	ldr	r3, [r3, #24]
 80008b2:	4a18      	ldr	r2, [pc, #96]	@ (8000914 <PWM_PB7_TIM4_CH2_Init+0xf4>)
 80008b4:	f443 43c0 	orr.w	r3, r3, #24576	@ 0x6000
 80008b8:	6193      	str	r3, [r2, #24]
	TIM4->CCMR1 |= TIM_CCMR1_OC2PE;  // Enable pre-load register
 80008ba:	4b16      	ldr	r3, [pc, #88]	@ (8000914 <PWM_PB7_TIM4_CH2_Init+0xf4>)
 80008bc:	699b      	ldr	r3, [r3, #24]
 80008be:	4a15      	ldr	r2, [pc, #84]	@ (8000914 <PWM_PB7_TIM4_CH2_Init+0xf4>)
 80008c0:	f443 6300 	orr.w	r3, r3, #2048	@ 0x800
 80008c4:	6193      	str	r3, [r2, #24]

	TIM4->CCER &= ~TIM_CCER_CC2P;    // set output polarity to active HIGH in CH2
 80008c6:	4b13      	ldr	r3, [pc, #76]	@ (8000914 <PWM_PB7_TIM4_CH2_Init+0xf4>)
 80008c8:	6a1b      	ldr	r3, [r3, #32]
 80008ca:	4a12      	ldr	r2, [pc, #72]	@ (8000914 <PWM_PB7_TIM4_CH2_Init+0xf4>)
 80008cc:	f023 0320 	bic.w	r3, r3, #32
 80008d0:	6213      	str	r3, [r2, #32]
	TIM4->CCER |= TIM_CCER_CC2E;     // Capture/Compare enabled for CH2
 80008d2:	4b10      	ldr	r3, [pc, #64]	@ (8000914 <PWM_PB7_TIM4_CH2_Init+0xf4>)
 80008d4:	6a1b      	ldr	r3, [r3, #32]
 80008d6:	4a0f      	ldr	r2, [pc, #60]	@ (8000914 <PWM_PB7_TIM4_CH2_Init+0xf4>)
 80008d8:	f043 0310 	orr.w	r3, r3, #16
 80008dc:	6213      	str	r3, [r2, #32]

	TIM4->EGR |= TIM_EGR_UG;         // Update generation (re-init the counter)
 80008de:	4b0d      	ldr	r3, [pc, #52]	@ (8000914 <PWM_PB7_TIM4_CH2_Init+0xf4>)
 80008e0:	695b      	ldr	r3, [r3, #20]
 80008e2:	4a0c      	ldr	r2, [pc, #48]	@ (8000914 <PWM_PB7_TIM4_CH2_Init+0xf4>)
 80008e4:	f043 0301 	orr.w	r3, r3, #1
 80008e8:	6153      	str	r3, [r2, #20]
	TIM4->CR1 |= TIM_CR1_ARPE;       // Auto reload preload enable
 80008ea:	4b0a      	ldr	r3, [pc, #40]	@ (8000914 <PWM_PB7_TIM4_CH2_Init+0xf4>)
 80008ec:	681b      	ldr	r3, [r3, #0]
 80008ee:	4a09      	ldr	r2, [pc, #36]	@ (8000914 <PWM_PB7_TIM4_CH2_Init+0xf4>)
 80008f0:	f043 0380 	orr.w	r3, r3, #128	@ 0x80
 80008f4:	6013      	str	r3, [r2, #0]
	TIM4->CR1 |= TIM_CR1_CEN;        // Enable counter on TIM4
 80008f6:	4b07      	ldr	r3, [pc, #28]	@ (8000914 <PWM_PB7_TIM4_CH2_Init+0xf4>)
 80008f8:	681b      	ldr	r3, [r3, #0]
 80008fa:	4a06      	ldr	r2, [pc, #24]	@ (8000914 <PWM_PB7_TIM4_CH2_Init+0xf4>)
 80008fc:	f043 0301 	orr.w	r3, r3, #1
 8000900:	6013      	str	r3, [r2, #0]
}
 8000902:	bf00      	nop
 8000904:	46bd      	mov	sp, r7
 8000906:	f85d 7b04 	ldr.w	r7, [sp], #4
 800090a:	4770      	bx	lr
 800090c:	40021000 	.word	0x40021000
 8000910:	48000400 	.word	0x48000400
 8000914:	40000800 	.word	0x40000800

08000918 <PWM_PB6_TIM4_CH1_Init>:

// PWM for PB6 (TIM4_CH1 -> AF2)
void PWM_PB6_TIM4_CH1_Init(void){
 8000918:	b480      	push	{r7}
 800091a:	af00      	add	r7, sp, #0
	// Config GPIO
	// Init Clk access to GPIOB
	RCC->AHB2ENR |= RCC_AHB2ENR_GPIOBEN;
 800091c:	4b39      	ldr	r3, [pc, #228]	@ (8000a04 <PWM_PB6_TIM4_CH1_Init+0xec>)
 800091e:	6cdb      	ldr	r3, [r3, #76]	@ 0x4c
 8000920:	4a38      	ldr	r2, [pc, #224]	@ (8000a04 <PWM_PB6_TIM4_CH1_Init+0xec>)
 8000922:	f043 0302 	orr.w	r3, r3, #2
 8000926:	64d3      	str	r3, [r2, #76]	@ 0x4c

	// Set PB6 output to Alt Funct Mode
	GPIOB->MODER  &= ~(0b11 << 12);
 8000928:	4b37      	ldr	r3, [pc, #220]	@ (8000a08 <PWM_PB6_TIM4_CH1_Init+0xf0>)
 800092a:	681b      	ldr	r3, [r3, #0]
 800092c:	4a36      	ldr	r2, [pc, #216]	@ (8000a08 <PWM_PB6_TIM4_CH1_Init+0xf0>)
 800092e:	f423 5340 	bic.w	r3, r3, #12288	@ 0x3000
 8000932:	6013      	str	r3, [r2, #0]
	GPIOB->MODER  |= (0b10 << 12);    // MODE6 = Alt Funct Mode
 8000934:	4b34      	ldr	r3, [pc, #208]	@ (8000a08 <PWM_PB6_TIM4_CH1_Init+0xf0>)
 8000936:	681b      	ldr	r3, [r3, #0]
 8000938:	4a33      	ldr	r2, [pc, #204]	@ (8000a08 <PWM_PB6_TIM4_CH1_Init+0xf0>)
 800093a:	f443 5300 	orr.w	r3, r3, #8192	@ 0x2000
 800093e:	6013      	str	r3, [r2, #0]
	GPIOB->AFR[0] &= ~(0b1111 << 24);
 8000940:	4b31      	ldr	r3, [pc, #196]	@ (8000a08 <PWM_PB6_TIM4_CH1_Init+0xf0>)
 8000942:	6a1b      	ldr	r3, [r3, #32]
 8000944:	4a30      	ldr	r2, [pc, #192]	@ (8000a08 <PWM_PB6_TIM4_CH1_Init+0xf0>)
 8000946:	f023 6370 	bic.w	r3, r3, #251658240	@ 0xf000000
 800094a:	6213      	str	r3, [r2, #32]
	GPIOB->AFR[0] |= (0b0010 << 24);  // AFSEL6 set to AF2
 800094c:	4b2e      	ldr	r3, [pc, #184]	@ (8000a08 <PWM_PB6_TIM4_CH1_Init+0xf0>)
 800094e:	6a1b      	ldr	r3, [r3, #32]
 8000950:	4a2d      	ldr	r2, [pc, #180]	@ (8000a08 <PWM_PB6_TIM4_CH1_Init+0xf0>)
 8000952:	f043 7300 	orr.w	r3, r3, #33554432	@ 0x2000000
 8000956:	6213      	str	r3, [r2, #32]

	// GPIO settings
	GPIOB->OSPEEDR |= (0b10 << 12);    // High speed pin
 8000958:	4b2b      	ldr	r3, [pc, #172]	@ (8000a08 <PWM_PB6_TIM4_CH1_Init+0xf0>)
 800095a:	689b      	ldr	r3, [r3, #8]
 800095c:	4a2a      	ldr	r2, [pc, #168]	@ (8000a08 <PWM_PB6_TIM4_CH1_Init+0xf0>)
 800095e:	f443 5300 	orr.w	r3, r3, #8192	@ 0x2000
 8000962:	6093      	str	r3, [r2, #8]
	GPIOB->OTYPER &= ~GPIO_OTYPER_OT6; // No Push-pull
 8000964:	4b28      	ldr	r3, [pc, #160]	@ (8000a08 <PWM_PB6_TIM4_CH1_Init+0xf0>)
 8000966:	685b      	ldr	r3, [r3, #4]
 8000968:	4a27      	ldr	r2, [pc, #156]	@ (8000a08 <PWM_PB6_TIM4_CH1_Init+0xf0>)
 800096a:	f023 0340 	bic.w	r3, r3, #64	@ 0x40
 800096e:	6053      	str	r3, [r2, #4]
	GPIOB->PUPDR  &= ~(0b11 << 12);    // No pull-up/pull-down
 8000970:	4b25      	ldr	r3, [pc, #148]	@ (8000a08 <PWM_PB6_TIM4_CH1_Init+0xf0>)
 8000972:	68db      	ldr	r3, [r3, #12]
 8000974:	4a24      	ldr	r2, [pc, #144]	@ (8000a08 <PWM_PB6_TIM4_CH1_Init+0xf0>)
 8000976:	f423 5340 	bic.w	r3, r3, #12288	@ 0x3000
 800097a:	60d3      	str	r3, [r2, #12]

	// Config Timer
	// Init Clk access to TIM4
	RCC->APB1ENR1 |= RCC_APB1ENR1_TIM4EN;
 800097c:	4b21      	ldr	r3, [pc, #132]	@ (8000a04 <PWM_PB6_TIM4_CH1_Init+0xec>)
 800097e:	6d9b      	ldr	r3, [r3, #88]	@ 0x58
 8000980:	4a20      	ldr	r2, [pc, #128]	@ (8000a04 <PWM_PB6_TIM4_CH1_Init+0xec>)
 8000982:	f043 0304 	orr.w	r3, r3, #4
 8000986:	6593      	str	r3, [r2, #88]	@ 0x58
	// Set TIM4 prescaler
	     // freq = Sys_Clk / (PSC + 1)(ARR + 1)
	     // 100k Hz = 16 Mhz / (0 + 1)(160 + 1)
	     // therefore, set PSC = 0 and ARR = 159

	TIM4->PSC = 0;                   // Clk pre-scaler -> 16MHz / 160 = 100k Hz
 8000988:	4b20      	ldr	r3, [pc, #128]	@ (8000a0c <PWM_PB6_TIM4_CH1_Init+0xf4>)
 800098a:	2200      	movs	r2, #0
 800098c:	629a      	str	r2, [r3, #40]	@ 0x28
	TIM4->ARR = 160 - 1;             // Period     (cycle length)
 800098e:	4b1f      	ldr	r3, [pc, #124]	@ (8000a0c <PWM_PB6_TIM4_CH1_Init+0xf4>)
 8000990:	229f      	movs	r2, #159	@ 0x9f
 8000992:	62da      	str	r2, [r3, #44]	@ 0x2c
	TIM4->CCR1 = 0;                 // Sets Duty Cycle (ON state) , CCR1 for CH1
 8000994:	4b1d      	ldr	r3, [pc, #116]	@ (8000a0c <PWM_PB6_TIM4_CH1_Init+0xf4>)
 8000996:	2200      	movs	r2, #0
 8000998:	635a      	str	r2, [r3, #52]	@ 0x34

	// Other timer settings
	TIM4->CCMR1 &= ~(0b111 << 4);    // Alternate register
 800099a:	4b1c      	ldr	r3, [pc, #112]	@ (8000a0c <PWM_PB6_TIM4_CH1_Init+0xf4>)
 800099c:	699b      	ldr	r3, [r3, #24]
 800099e:	4a1b      	ldr	r2, [pc, #108]	@ (8000a0c <PWM_PB6_TIM4_CH1_Init+0xf4>)
 80009a0:	f023 0370 	bic.w	r3, r3, #112	@ 0x70
 80009a4:	6193      	str	r3, [r2, #24]
	TIM4->CCMR1 |=  (0b110 << 4);    // CH1 set to PWM mode 1
 80009a6:	4b19      	ldr	r3, [pc, #100]	@ (8000a0c <PWM_PB6_TIM4_CH1_Init+0xf4>)
 80009a8:	699b      	ldr	r3, [r3, #24]
 80009aa:	4a18      	ldr	r2, [pc, #96]	@ (8000a0c <PWM_PB6_TIM4_CH1_Init+0xf4>)
 80009ac:	f043 0360 	orr.w	r3, r3, #96	@ 0x60
 80009b0:	6193      	str	r3, [r2, #24]
	TIM4->CCMR1 |= TIM_CCMR1_OC1PE;  // Enable pre-load register
 80009b2:	4b16      	ldr	r3, [pc, #88]	@ (8000a0c <PWM_PB6_TIM4_CH1_Init+0xf4>)
 80009b4:	699b      	ldr	r3, [r3, #24]
 80009b6:	4a15      	ldr	r2, [pc, #84]	@ (8000a0c <PWM_PB6_TIM4_CH1_Init+0xf4>)
 80009b8:	f043 0308 	orr.w	r3, r3, #8
 80009bc:	6193      	str	r3, [r2, #24]

	TIM4->CCER &= ~TIM_CCER_CC1P;    // set output polarity to active HIGH in CH1
 80009be:	4b13      	ldr	r3, [pc, #76]	@ (8000a0c <PWM_PB6_TIM4_CH1_Init+0xf4>)
 80009c0:	6a1b      	ldr	r3, [r3, #32]
 80009c2:	4a12      	ldr	r2, [pc, #72]	@ (8000a0c <PWM_PB6_TIM4_CH1_Init+0xf4>)
 80009c4:	f023 0302 	bic.w	r3, r3, #2
 80009c8:	6213      	str	r3, [r2, #32]
	TIM4->CCER |= TIM_CCER_CC1E;     // Capture/Compare enabled for CH1
 80009ca:	4b10      	ldr	r3, [pc, #64]	@ (8000a0c <PWM_PB6_TIM4_CH1_Init+0xf4>)
 80009cc:	6a1b      	ldr	r3, [r3, #32]
 80009ce:	4a0f      	ldr	r2, [pc, #60]	@ (8000a0c <PWM_PB6_TIM4_CH1_Init+0xf4>)
 80009d0:	f043 0301 	orr.w	r3, r3, #1
 80009d4:	6213      	str	r3, [r2, #32]

	TIM4->EGR |= TIM_EGR_UG;         // Update generation (re-init the counter)
 80009d6:	4b0d      	ldr	r3, [pc, #52]	@ (8000a0c <PWM_PB6_TIM4_CH1_Init+0xf4>)
 80009d8:	695b      	ldr	r3, [r3, #20]
 80009da:	4a0c      	ldr	r2, [pc, #48]	@ (8000a0c <PWM_PB6_TIM4_CH1_Init+0xf4>)
 80009dc:	f043 0301 	orr.w	r3, r3, #1
 80009e0:	6153      	str	r3, [r2, #20]
	TIM4->CR1 |= TIM_CR1_ARPE;       // Auto reload preload enable
 80009e2:	4b0a      	ldr	r3, [pc, #40]	@ (8000a0c <PWM_PB6_TIM4_CH1_Init+0xf4>)
 80009e4:	681b      	ldr	r3, [r3, #0]
 80009e6:	4a09      	ldr	r2, [pc, #36]	@ (8000a0c <PWM_PB6_TIM4_CH1_Init+0xf4>)
 80009e8:	f043 0380 	orr.w	r3, r3, #128	@ 0x80
 80009ec:	6013      	str	r3, [r2, #0]
	TIM4->CR1 |= TIM_CR1_CEN;        // Enable counter on TIM4
 80009ee:	4b07      	ldr	r3, [pc, #28]	@ (8000a0c <PWM_PB6_TIM4_CH1_Init+0xf4>)
 80009f0:	681b      	ldr	r3, [r3, #0]
 80009f2:	4a06      	ldr	r2, [pc, #24]	@ (8000a0c <PWM_PB6_TIM4_CH1_Init+0xf4>)
 80009f4:	f043 0301 	orr.w	r3, r3, #1
 80009f8:	6013      	str	r3, [r2, #0]
}
 80009fa:	bf00      	nop
 80009fc:	46bd      	mov	sp, r7
 80009fe:	f85d 7b04 	ldr.w	r7, [sp], #4
 8000a02:	4770      	bx	lr
 8000a04:	40021000 	.word	0x40021000
 8000a08:	48000400 	.word	0x48000400
 8000a0c:	40000800 	.word	0x40000800

08000a10 <PWM_PB3_TIM2_CH2_Init>:

// PWM for PB3 (TIM2_CH2 -> AF1)
void PWM_PB3_TIM2_CH2_Init(void){
 8000a10:	b480      	push	{r7}
 8000a12:	af00      	add	r7, sp, #0
	// Config GPIO
	// Init Clk access to GPIOB
	RCC->AHB2ENR |= RCC_AHB2ENR_GPIOBEN;
 8000a14:	4b43      	ldr	r3, [pc, #268]	@ (8000b24 <PWM_PB3_TIM2_CH2_Init+0x114>)
 8000a16:	6cdb      	ldr	r3, [r3, #76]	@ 0x4c
 8000a18:	4a42      	ldr	r2, [pc, #264]	@ (8000b24 <PWM_PB3_TIM2_CH2_Init+0x114>)
 8000a1a:	f043 0302 	orr.w	r3, r3, #2
 8000a1e:	64d3      	str	r3, [r2, #76]	@ 0x4c

	// Set PB3 output to Alt Funct Mode
	GPIOB->MODER  &= ~(0b11 << 6);
 8000a20:	4b41      	ldr	r3, [pc, #260]	@ (8000b28 <PWM_PB3_TIM2_CH2_Init+0x118>)
 8000a22:	681b      	ldr	r3, [r3, #0]
 8000a24:	4a40      	ldr	r2, [pc, #256]	@ (8000b28 <PWM_PB3_TIM2_CH2_Init+0x118>)
 8000a26:	f023 03c0 	bic.w	r3, r3, #192	@ 0xc0
 8000a2a:	6013      	str	r3, [r2, #0]
	GPIOB->MODER  |= (0b10 << 6);    // MODE6 = Alt Funct Mode
 8000a2c:	4b3e      	ldr	r3, [pc, #248]	@ (8000b28 <PWM_PB3_TIM2_CH2_Init+0x118>)
 8000a2e:	681b      	ldr	r3, [r3, #0]
 8000a30:	4a3d      	ldr	r2, [pc, #244]	@ (8000b28 <PWM_PB3_TIM2_CH2_Init+0x118>)
 8000a32:	f043 0380 	orr.w	r3, r3, #128	@ 0x80
 8000a36:	6013      	str	r3, [r2, #0]
	GPIOB->AFR[0] &= ~(0b1111 << 12);
 8000a38:	4b3b      	ldr	r3, [pc, #236]	@ (8000b28 <PWM_PB3_TIM2_CH2_Init+0x118>)
 8000a3a:	6a1b      	ldr	r3, [r3, #32]
 8000a3c:	4a3a      	ldr	r2, [pc, #232]	@ (8000b28 <PWM_PB3_TIM2_CH2_Init+0x118>)
 8000a3e:	f423 4370 	bic.w	r3, r3, #61440	@ 0xf000
 8000a42:	6213      	str	r3, [r2, #32]
	GPIOB->AFR[0] |= (0b0001 << 12);  // AFSEL3 set to AF1
 8000a44:	4b38      	ldr	r3, [pc, #224]	@ (8000b28 <PWM_PB3_TIM2_CH2_Init+0x118>)
 8000a46:	6a1b      	ldr	r3, [r3, #32]
 8000a48:	4a37      	ldr	r2, [pc, #220]	@ (8000b28 <PWM_PB3_TIM2_CH2_Init+0x118>)
 8000a4a:	f443 5380 	orr.w	r3, r3, #4096	@ 0x1000
 8000a4e:	6213      	str	r3, [r2, #32]

	// GPIO settings
	GPIOB->OSPEEDR |= (0b10 << 6);    // High speed pin
 8000a50:	4b35      	ldr	r3, [pc, #212]	@ (8000b28 <PWM_PB3_TIM2_CH2_Init+0x118>)
 8000a52:	689b      	ldr	r3, [r3, #8]
 8000a54:	4a34      	ldr	r2, [pc, #208]	@ (8000b28 <PWM_PB3_TIM2_CH2_Init+0x118>)
 8000a56:	f043 0380 	orr.w	r3, r3, #128	@ 0x80
 8000a5a:	6093      	str	r3, [r2, #8]
	GPIOB->OTYPER &= ~GPIO_OTYPER_OT3; // No Push-pull
 8000a5c:	4b32      	ldr	r3, [pc, #200]	@ (8000b28 <PWM_PB3_TIM2_CH2_Init+0x118>)
 8000a5e:	685b      	ldr	r3, [r3, #4]
 8000a60:	4a31      	ldr	r2, [pc, #196]	@ (8000b28 <PWM_PB3_TIM2_CH2_Init+0x118>)
 8000a62:	f023 0308 	bic.w	r3, r3, #8
 8000a66:	6053      	str	r3, [r2, #4]
	GPIOB->PUPDR  &= ~(0b11 << 6);    // No pull-up/pull-down
 8000a68:	4b2f      	ldr	r3, [pc, #188]	@ (8000b28 <PWM_PB3_TIM2_CH2_Init+0x118>)
 8000a6a:	68db      	ldr	r3, [r3, #12]
 8000a6c:	4a2e      	ldr	r2, [pc, #184]	@ (8000b28 <PWM_PB3_TIM2_CH2_Init+0x118>)
 8000a6e:	f023 03c0 	bic.w	r3, r3, #192	@ 0xc0
 8000a72:	60d3      	str	r3, [r2, #12]

	// Config Timer
	// Init Clk access to TIM2
	RCC->APB1ENR1 |= RCC_APB1ENR1_TIM2EN;
 8000a74:	4b2b      	ldr	r3, [pc, #172]	@ (8000b24 <PWM_PB3_TIM2_CH2_Init+0x114>)
 8000a76:	6d9b      	ldr	r3, [r3, #88]	@ 0x58
 8000a78:	4a2a      	ldr	r2, [pc, #168]	@ (8000b24 <PWM_PB3_TIM2_CH2_Init+0x114>)
 8000a7a:	f043 0301 	orr.w	r3, r3, #1
 8000a7e:	6593      	str	r3, [r2, #88]	@ 0x58
	// Set TIM4 prescaler
	     // freq = Sys_Clk / (PSC + 1)(ARR + 1)
	     // 100k Hz = 16 Mhz / (0 + 1)(160 + 1)
	     // therefore, set PSC = 0 and ARR = 159

	TIM2->PSC = 0;                   // Clk pre-scaler -> 16MHz / 160 = 100k Hz
 8000a80:	f04f 4380 	mov.w	r3, #1073741824	@ 0x40000000
 8000a84:	2200      	movs	r2, #0
 8000a86:	629a      	str	r2, [r3, #40]	@ 0x28
	TIM2->ARR = 160 - 1;             // Period     (cycle length)
 8000a88:	f04f 4380 	mov.w	r3, #1073741824	@ 0x40000000
 8000a8c:	229f      	movs	r2, #159	@ 0x9f
 8000a8e:	62da      	str	r2, [r3, #44]	@ 0x2c
	TIM2->CCR2 = 0;                 // Sets Duty Cycle (ON state) , CCR2 for CH2
 8000a90:	f04f 4380 	mov.w	r3, #1073741824	@ 0x40000000
 8000a94:	2200      	movs	r2, #0
 8000a96:	639a      	str	r2, [r3, #56]	@ 0x38

	// Other timer settings
	TIM2->CCMR1 &= ~(0b111 << 12);   // Alternate register
 8000a98:	f04f 4380 	mov.w	r3, #1073741824	@ 0x40000000
 8000a9c:	699b      	ldr	r3, [r3, #24]
 8000a9e:	f04f 4280 	mov.w	r2, #1073741824	@ 0x40000000
 8000aa2:	f423 43e0 	bic.w	r3, r3, #28672	@ 0x7000
 8000aa6:	6193      	str	r3, [r2, #24]
	TIM2->CCMR1 |=  (0b110 << 12);   // CH2 set to PWM mode 1
 8000aa8:	f04f 4380 	mov.w	r3, #1073741824	@ 0x40000000
 8000aac:	699b      	ldr	r3, [r3, #24]
 8000aae:	f04f 4280 	mov.w	r2, #1073741824	@ 0x40000000
 8000ab2:	f443 43c0 	orr.w	r3, r3, #24576	@ 0x6000
 8000ab6:	6193      	str	r3, [r2, #24]
	TIM2->CCMR1 |= TIM_CCMR1_OC2PE;  // Enable pre-load register CH2
 8000ab8:	f04f 4380 	mov.w	r3, #1073741824	@ 0x40000000
 8000abc:	699b      	ldr	r3, [r3, #24]
 8000abe:	f04f 4280 	mov.w	r2, #1073741824	@ 0x40000000
 8000ac2:	f443 6300 	orr.w	r3, r3, #2048	@ 0x800
 8000ac6:	6193      	str	r3, [r2, #24]

	TIM2->CCER &= ~TIM_CCER_CC2P;    // set output polarity to active HIGH in CH2
 8000ac8:	f04f 4380 	mov.w	r3, #1073741824	@ 0x40000000
 8000acc:	6a1b      	ldr	r3, [r3, #32]
 8000ace:	f04f 4280 	mov.w	r2, #1073741824	@ 0x40000000
 8000ad2:	f023 0320 	bic.w	r3, r3, #32
 8000ad6:	6213      	str	r3, [r2, #32]
	TIM2->CCER |= TIM_CCER_CC2E;     // Capture/Compare enabled for CH2
 8000ad8:	f04f 4380 	mov.w	r3, #1073741824	@ 0x40000000
 8000adc:	6a1b      	ldr	r3, [r3, #32]
 8000ade:	f04f 4280 	mov.w	r2, #1073741824	@ 0x40000000
 8000ae2:	f043 0310 	orr.w	r3, r3, #16
 8000ae6:	6213      	str	r3, [r2, #32]

	TIM2->EGR |= TIM_EGR_UG;         // Update generation (re-init the counter)
 8000ae8:	f04f 4380 	mov.w	r3, #1073741824	@ 0x40000000
 8000aec:	695b      	ldr	r3, [r3, #20]
 8000aee:	f04f 4280 	mov.w	r2, #1073741824	@ 0x40000000
 8000af2:	f043 0301 	orr.w	r3, r3, #1
 8000af6:	6153      	str	r3, [r2, #20]
	TIM2->CR1 |= TIM_CR1_ARPE;       // Auto reload preload enable
 8000af8:	f04f 4380 	mov.w	r3, #1073741824	@ 0x40000000
 8000afc:	681b      	ldr	r3, [r3, #0]
 8000afe:	f04f 4280 	mov.w	r2, #1073741824	@ 0x40000000
 8000b02:	f043 0380 	orr.w	r3, r3, #128	@ 0x80
 8000b06:	6013      	str	r3, [r2, #0]
	TIM2->CR1 |= TIM_CR1_CEN;        // Enable counter on TIM1
 8000b08:	f04f 4380 	mov.w	r3, #1073741824	@ 0x40000000
 8000b0c:	681b      	ldr	r3, [r3, #0]
 8000b0e:	f04f 4280 	mov.w	r2, #1073741824	@ 0x40000000
 8000b12:	f043 0301 	orr.w	r3, r3, #1
 8000b16:	6013      	str	r3, [r2, #0]
}
 8000b18:	bf00      	nop
 8000b1a:	46bd      	mov	sp, r7
 8000b1c:	f85d 7b04 	ldr.w	r7, [sp], #4
 8000b20:	4770      	bx	lr
 8000b22:	bf00      	nop
 8000b24:	40021000 	.word	0x40021000
 8000b28:	48000400 	.word	0x48000400

08000b2c <PWM_PA15_TIM2_CH1_Init>:

// PWM for PA15 (TIM2_CH1 -> AF1)
void PWM_PA15_TIM2_CH1_Init(void){
 8000b2c:	b480      	push	{r7}
 8000b2e:	af00      	add	r7, sp, #0
	// Config GPIO
	// Init Clk access to GPIOA
	RCC->AHB2ENR |= RCC_AHB2ENR_GPIOAEN;
 8000b30:	4b4a      	ldr	r3, [pc, #296]	@ (8000c5c <PWM_PA15_TIM2_CH1_Init+0x130>)
 8000b32:	6cdb      	ldr	r3, [r3, #76]	@ 0x4c
 8000b34:	4a49      	ldr	r2, [pc, #292]	@ (8000c5c <PWM_PA15_TIM2_CH1_Init+0x130>)
 8000b36:	f043 0301 	orr.w	r3, r3, #1
 8000b3a:	64d3      	str	r3, [r2, #76]	@ 0x4c

	// Set PA15 output to Alt Funct Mode
	GPIOA->MODER  &= ~(0b11 << 30);
 8000b3c:	f04f 4390 	mov.w	r3, #1207959552	@ 0x48000000
 8000b40:	681b      	ldr	r3, [r3, #0]
 8000b42:	f04f 4290 	mov.w	r2, #1207959552	@ 0x48000000
 8000b46:	f023 4340 	bic.w	r3, r3, #3221225472	@ 0xc0000000
 8000b4a:	6013      	str	r3, [r2, #0]
	GPIOA->MODER  |= (0b10 << 30);     // MODE15 = Alt Funct Mode
 8000b4c:	f04f 4390 	mov.w	r3, #1207959552	@ 0x48000000
 8000b50:	681b      	ldr	r3, [r3, #0]
 8000b52:	f04f 4290 	mov.w	r2, #1207959552	@ 0x48000000
 8000b56:	f043 4300 	orr.w	r3, r3, #2147483648	@ 0x80000000
 8000b5a:	6013      	str	r3, [r2, #0]
	GPIOA->AFR[1] &= ~(0b1111 << 28);
 8000b5c:	f04f 4390 	mov.w	r3, #1207959552	@ 0x48000000
 8000b60:	6a5b      	ldr	r3, [r3, #36]	@ 0x24
 8000b62:	f04f 4290 	mov.w	r2, #1207959552	@ 0x48000000
 8000b66:	f023 4370 	bic.w	r3, r3, #4026531840	@ 0xf0000000
 8000b6a:	6253      	str	r3, [r2, #36]	@ 0x24
	GPIOA->AFR[1] |= (0b0001 << 28);  // AFSEL15 set to AF1
 8000b6c:	f04f 4390 	mov.w	r3, #1207959552	@ 0x48000000
 8000b70:	6a5b      	ldr	r3, [r3, #36]	@ 0x24
 8000b72:	f04f 4290 	mov.w	r2, #1207959552	@ 0x48000000
 8000b76:	f043 5380 	orr.w	r3, r3, #268435456	@ 0x10000000
 8000b7a:	6253      	str	r3, [r2, #36]	@ 0x24

	// GPIO settings
	GPIOA->OSPEEDR |= (0b10 << 30);     // High speed pin
 8000b7c:	f04f 4390 	mov.w	r3, #1207959552	@ 0x48000000
 8000b80:	689b      	ldr	r3, [r3, #8]
 8000b82:	f04f 4290 	mov.w	r2, #1207959552	@ 0x48000000
 8000b86:	f043 4300 	orr.w	r3, r3, #2147483648	@ 0x80000000
 8000b8a:	6093      	str	r3, [r2, #8]
	GPIOA->OTYPER &= ~GPIO_OTYPER_OT15; // No Push-pull
 8000b8c:	f04f 4390 	mov.w	r3, #1207959552	@ 0x48000000
 8000b90:	685b      	ldr	r3, [r3, #4]
 8000b92:	f04f 4290 	mov.w	r2, #1207959552	@ 0x48000000
 8000b96:	f423 4300 	bic.w	r3, r3, #32768	@ 0x8000
 8000b9a:	6053      	str	r3, [r2, #4]
	GPIOA->PUPDR  &= ~(0b11 << 30);     // No pull-up/pull-down
 8000b9c:	f04f 4390 	mov.w	r3, #1207959552	@ 0x48000000
 8000ba0:	68db      	ldr	r3, [r3, #12]
 8000ba2:	f04f 4290 	mov.w	r2, #1207959552	@ 0x48000000
 8000ba6:	f023 4340 	bic.w	r3, r3, #3221225472	@ 0xc0000000
 8000baa:	60d3      	str	r3, [r2, #12]

	// Config Timer
	// Init Clk access to TIM2
	RCC->APB1ENR1 |= RCC_APB1ENR1_TIM2EN;
 8000bac:	4b2b      	ldr	r3, [pc, #172]	@ (8000c5c <PWM_PA15_TIM2_CH1_Init+0x130>)
 8000bae:	6d9b      	ldr	r3, [r3, #88]	@ 0x58
 8000bb0:	4a2a      	ldr	r2, [pc, #168]	@ (8000c5c <PWM_PA15_TIM2_CH1_Init+0x130>)
 8000bb2:	f043 0301 	orr.w	r3, r3, #1
 8000bb6:	6593      	str	r3, [r2, #88]	@ 0x58
	// Set TIM4 prescaler
	     // freq = Sys_Clk / (PSC + 1)(ARR + 1)
	     // 100k Hz = 16 Mhz / (0 + 1)(160 + 1)
	     // therefore, set PSC = 0 and ARR = 159

	TIM2->PSC = 0;                   // Clk pre-scaler -> 16MHz / 160 = 100k Hz
 8000bb8:	f04f 4380 	mov.w	r3, #1073741824	@ 0x40000000
 8000bbc:	2200      	movs	r2, #0
 8000bbe:	629a      	str	r2, [r3, #40]	@ 0x28
	TIM2->ARR = 160 - 1;             // Period     (cycle length)
 8000bc0:	f04f 4380 	mov.w	r3, #1073741824	@ 0x40000000
 8000bc4:	229f      	movs	r2, #159	@ 0x9f
 8000bc6:	62da      	str	r2, [r3, #44]	@ 0x2c
	TIM2->CCR1 = 0;                 // Sets Duty Cycle (ON state) , CCR2 for CH2
 8000bc8:	f04f 4380 	mov.w	r3, #1073741824	@ 0x40000000
 8000bcc:	2200      	movs	r2, #0
 8000bce:	635a      	str	r2, [r3, #52]	@ 0x34

	// Other timer settings
	TIM2->CCMR1 &= ~(0b111 << 4);    // Alternate register
 8000bd0:	f04f 4380 	mov.w	r3, #1073741824	@ 0x40000000
 8000bd4:	699b      	ldr	r3, [r3, #24]
 8000bd6:	f04f 4280 	mov.w	r2, #1073741824	@ 0x40000000
 8000bda:	f023 0370 	bic.w	r3, r3, #112	@ 0x70
 8000bde:	6193      	str	r3, [r2, #24]
	TIM2->CCMR1 |=  (0b110 << 4);    // CH1 set to PWM mode 1
 8000be0:	f04f 4380 	mov.w	r3, #1073741824	@ 0x40000000
 8000be4:	699b      	ldr	r3, [r3, #24]
 8000be6:	f04f 4280 	mov.w	r2, #1073741824	@ 0x40000000
 8000bea:	f043 0360 	orr.w	r3, r3, #96	@ 0x60
 8000bee:	6193      	str	r3, [r2, #24]
	TIM2->CCMR1 |= TIM_CCMR1_OC1PE;  // Enable pre-load register CH1
 8000bf0:	f04f 4380 	mov.w	r3, #1073741824	@ 0x40000000
 8000bf4:	699b      	ldr	r3, [r3, #24]
 8000bf6:	f04f 4280 	mov.w	r2, #1073741824	@ 0x40000000
 8000bfa:	f043 0308 	orr.w	r3, r3, #8
 8000bfe:	6193      	str	r3, [r2, #24]

	TIM2->CCER &= ~TIM_CCER_CC1P;    // set output polarity to active HIGH in CH1
 8000c00:	f04f 4380 	mov.w	r3, #1073741824	@ 0x40000000
 8000c04:	6a1b      	ldr	r3, [r3, #32]
 8000c06:	f04f 4280 	mov.w	r2, #1073741824	@ 0x40000000
 8000c0a:	f023 0302 	bic.w	r3, r3, #2
 8000c0e:	6213      	str	r3, [r2, #32]
	TIM2->CCER |= TIM_CCER_CC1E;     // Capture/Compare enabled for CH1
 8000c10:	f04f 4380 	mov.w	r3, #1073741824	@ 0x40000000
 8000c14:	6a1b      	ldr	r3, [r3, #32]
 8000c16:	f04f 4280 	mov.w	r2, #1073741824	@ 0x40000000
 8000c1a:	f043 0301 	orr.w	r3, r3, #1
 8000c1e:	6213      	str	r3, [r2, #32]

	TIM2->EGR |= TIM_EGR_UG;         // Update generation (re-init the counter)
 8000c20:	f04f 4380 	mov.w	r3, #1073741824	@ 0x40000000
 8000c24:	695b      	ldr	r3, [r3, #20]
 8000c26:	f04f 4280 	mov.w	r2, #1073741824	@ 0x40000000
 8000c2a:	f043 0301 	orr.w	r3, r3, #1
 8000c2e:	6153      	str	r3, [r2, #20]
	TIM2->CR1 |= TIM_CR1_ARPE;       // Auto reload preload enable
 8000c30:	f04f 4380 	mov.w	r3, #1073741824	@ 0x40000000
 8000c34:	681b      	ldr	r3, [r3, #0]
 8000c36:	f04f 4280 	mov.w	r2, #1073741824	@ 0x40000000
 8000c3a:	f043 0380 	orr.w	r3, r3, #128	@ 0x80
 8000c3e:	6013      	str	r3, [r2, #0]
	TIM2->CR1 |= TIM_CR1_CEN;        // Enable counter on TIM1
 8000c40:	f04f 4380 	mov.w	r3, #1073741824	@ 0x40000000
 8000c44:	681b      	ldr	r3, [r3, #0]
 8000c46:	f04f 4280 	mov.w	r2, #1073741824	@ 0x40000000
 8000c4a:	f043 0301 	orr.w	r3, r3, #1
 8000c4e:	6013      	str	r3, [r2, #0]
}
 8000c50:	bf00      	nop
 8000c52:	46bd      	mov	sp, r7
 8000c54:	f85d 7b04 	ldr.w	r7, [sp], #4
 8000c58:	4770      	bx	lr
 8000c5a:	bf00      	nop
 8000c5c:	40021000 	.word	0x40021000

08000c60 <PWM_PC2_TIM1_CH3_Init>:

// PWM for PC2 (TIM1_CH3 -> AF2)
void PWM_PC2_TIM1_CH3_Init(void){
 8000c60:	b480      	push	{r7}
 8000c62:	af00      	add	r7, sp, #0
	// Config GPIO
	// Init Clk access to GPIOC
	RCC->AHB2ENR |= RCC_AHB2ENR_GPIOCEN;
 8000c64:	4b3c      	ldr	r3, [pc, #240]	@ (8000d58 <PWM_PC2_TIM1_CH3_Init+0xf8>)
 8000c66:	6cdb      	ldr	r3, [r3, #76]	@ 0x4c
 8000c68:	4a3b      	ldr	r2, [pc, #236]	@ (8000d58 <PWM_PC2_TIM1_CH3_Init+0xf8>)
 8000c6a:	f043 0304 	orr.w	r3, r3, #4
 8000c6e:	64d3      	str	r3, [r2, #76]	@ 0x4c

	// Set PC2 output to Alt Funct Mode
	GPIOC->MODER  &= ~(0b11 << 4);
 8000c70:	4b3a      	ldr	r3, [pc, #232]	@ (8000d5c <PWM_PC2_TIM1_CH3_Init+0xfc>)
 8000c72:	681b      	ldr	r3, [r3, #0]
 8000c74:	4a39      	ldr	r2, [pc, #228]	@ (8000d5c <PWM_PC2_TIM1_CH3_Init+0xfc>)
 8000c76:	f023 0330 	bic.w	r3, r3, #48	@ 0x30
 8000c7a:	6013      	str	r3, [r2, #0]
	GPIOC->MODER  |= (0b10 << 4);    // MODE2 = Alt Funct Mode
 8000c7c:	4b37      	ldr	r3, [pc, #220]	@ (8000d5c <PWM_PC2_TIM1_CH3_Init+0xfc>)
 8000c7e:	681b      	ldr	r3, [r3, #0]
 8000c80:	4a36      	ldr	r2, [pc, #216]	@ (8000d5c <PWM_PC2_TIM1_CH3_Init+0xfc>)
 8000c82:	f043 0320 	orr.w	r3, r3, #32
 8000c86:	6013      	str	r3, [r2, #0]
	GPIOC->AFR[0] &= ~(0b1111 << 8);
 8000c88:	4b34      	ldr	r3, [pc, #208]	@ (8000d5c <PWM_PC2_TIM1_CH3_Init+0xfc>)
 8000c8a:	6a1b      	ldr	r3, [r3, #32]
 8000c8c:	4a33      	ldr	r2, [pc, #204]	@ (8000d5c <PWM_PC2_TIM1_CH3_Init+0xfc>)
 8000c8e:	f423 6370 	bic.w	r3, r3, #3840	@ 0xf00
 8000c92:	6213      	str	r3, [r2, #32]
	GPIOC->AFR[0] |= (0b0010 << 8);  // AFSEL2 set to AF2
 8000c94:	4b31      	ldr	r3, [pc, #196]	@ (8000d5c <PWM_PC2_TIM1_CH3_Init+0xfc>)
 8000c96:	6a1b      	ldr	r3, [r3, #32]
 8000c98:	4a30      	ldr	r2, [pc, #192]	@ (8000d5c <PWM_PC2_TIM1_CH3_Init+0xfc>)
 8000c9a:	f443 7300 	orr.w	r3, r3, #512	@ 0x200
 8000c9e:	6213      	str	r3, [r2, #32]

	// GPIO settings
	GPIOC->OSPEEDR |= (0b10 << 4);     // High speed pin
 8000ca0:	4b2e      	ldr	r3, [pc, #184]	@ (8000d5c <PWM_PC2_TIM1_CH3_Init+0xfc>)
 8000ca2:	689b      	ldr	r3, [r3, #8]
 8000ca4:	4a2d      	ldr	r2, [pc, #180]	@ (8000d5c <PWM_PC2_TIM1_CH3_Init+0xfc>)
 8000ca6:	f043 0320 	orr.w	r3, r3, #32
 8000caa:	6093      	str	r3, [r2, #8]
	GPIOC->OTYPER &= ~GPIO_OTYPER_OT2; // No Push-pull
 8000cac:	4b2b      	ldr	r3, [pc, #172]	@ (8000d5c <PWM_PC2_TIM1_CH3_Init+0xfc>)
 8000cae:	685b      	ldr	r3, [r3, #4]
 8000cb0:	4a2a      	ldr	r2, [pc, #168]	@ (8000d5c <PWM_PC2_TIM1_CH3_Init+0xfc>)
 8000cb2:	f023 0304 	bic.w	r3, r3, #4
 8000cb6:	6053      	str	r3, [r2, #4]
	GPIOC->PUPDR  &= ~(0b11 << 4);     // No pull-up/pull-down
 8000cb8:	4b28      	ldr	r3, [pc, #160]	@ (8000d5c <PWM_PC2_TIM1_CH3_Init+0xfc>)
 8000cba:	68db      	ldr	r3, [r3, #12]
 8000cbc:	4a27      	ldr	r2, [pc, #156]	@ (8000d5c <PWM_PC2_TIM1_CH3_Init+0xfc>)
 8000cbe:	f023 0330 	bic.w	r3, r3, #48	@ 0x30
 8000cc2:	60d3      	str	r3, [r2, #12]

	// Config Timer
	// Init Clk access to TIM1
	RCC->APB2ENR |= RCC_APB2ENR_TIM1EN;
 8000cc4:	4b24      	ldr	r3, [pc, #144]	@ (8000d58 <PWM_PC2_TIM1_CH3_Init+0xf8>)
 8000cc6:	6e1b      	ldr	r3, [r3, #96]	@ 0x60
 8000cc8:	4a23      	ldr	r2, [pc, #140]	@ (8000d58 <PWM_PC2_TIM1_CH3_Init+0xf8>)
 8000cca:	f443 6300 	orr.w	r3, r3, #2048	@ 0x800
 8000cce:	6613      	str	r3, [r2, #96]	@ 0x60
	// Set TIM4 prescaler
	     // freq = Sys_Clk / (PSC + 1)(ARR + 1)
	     // 100k Hz = 16 Mhz / (0 + 1)(160 + 1)
	     // therefore, set PSC = 0 and ARR = 159

	TIM1->PSC = 0;                   // Clk pre-scaler -> 16MHz / 160 = 100k Hz
 8000cd0:	4b23      	ldr	r3, [pc, #140]	@ (8000d60 <PWM_PC2_TIM1_CH3_Init+0x100>)
 8000cd2:	2200      	movs	r2, #0
 8000cd4:	629a      	str	r2, [r3, #40]	@ 0x28
	TIM1->ARR = 160 - 1;             // Period     (cycle length)
 8000cd6:	4b22      	ldr	r3, [pc, #136]	@ (8000d60 <PWM_PC2_TIM1_CH3_Init+0x100>)
 8000cd8:	229f      	movs	r2, #159	@ 0x9f
 8000cda:	62da      	str	r2, [r3, #44]	@ 0x2c
	TIM1->CCR3 = 0;                 // Sets Duty Cycle (ON state) , CCR3 for CH3
 8000cdc:	4b20      	ldr	r3, [pc, #128]	@ (8000d60 <PWM_PC2_TIM1_CH3_Init+0x100>)
 8000cde:	2200      	movs	r2, #0
 8000ce0:	63da      	str	r2, [r3, #60]	@ 0x3c

	// Other timer settings
	TIM1->CCMR2 &= ~(0b111 << 4);    // Alternate register
 8000ce2:	4b1f      	ldr	r3, [pc, #124]	@ (8000d60 <PWM_PC2_TIM1_CH3_Init+0x100>)
 8000ce4:	69db      	ldr	r3, [r3, #28]
 8000ce6:	4a1e      	ldr	r2, [pc, #120]	@ (8000d60 <PWM_PC2_TIM1_CH3_Init+0x100>)
 8000ce8:	f023 0370 	bic.w	r3, r3, #112	@ 0x70
 8000cec:	61d3      	str	r3, [r2, #28]
	TIM1->CCMR2 |=  (0b110 << 4);    // CH3 set to PWM mode 1
 8000cee:	4b1c      	ldr	r3, [pc, #112]	@ (8000d60 <PWM_PC2_TIM1_CH3_Init+0x100>)
 8000cf0:	69db      	ldr	r3, [r3, #28]
 8000cf2:	4a1b      	ldr	r2, [pc, #108]	@ (8000d60 <PWM_PC2_TIM1_CH3_Init+0x100>)
 8000cf4:	f043 0360 	orr.w	r3, r3, #96	@ 0x60
 8000cf8:	61d3      	str	r3, [r2, #28]
	TIM1->CCMR2 |= TIM_CCMR2_OC3PE;  // Enable pre-load register CH3
 8000cfa:	4b19      	ldr	r3, [pc, #100]	@ (8000d60 <PWM_PC2_TIM1_CH3_Init+0x100>)
 8000cfc:	69db      	ldr	r3, [r3, #28]
 8000cfe:	4a18      	ldr	r2, [pc, #96]	@ (8000d60 <PWM_PC2_TIM1_CH3_Init+0x100>)
 8000d00:	f043 0308 	orr.w	r3, r3, #8
 8000d04:	61d3      	str	r3, [r2, #28]

	TIM1->CCER &= ~TIM_CCER_CC3P;    // set output polarity to active HIGH in CH3
 8000d06:	4b16      	ldr	r3, [pc, #88]	@ (8000d60 <PWM_PC2_TIM1_CH3_Init+0x100>)
 8000d08:	6a1b      	ldr	r3, [r3, #32]
 8000d0a:	4a15      	ldr	r2, [pc, #84]	@ (8000d60 <PWM_PC2_TIM1_CH3_Init+0x100>)
 8000d0c:	f423 7300 	bic.w	r3, r3, #512	@ 0x200
 8000d10:	6213      	str	r3, [r2, #32]
	TIM1->CCER |= TIM_CCER_CC3E;     // Capture/Compare enabled for CH3
 8000d12:	4b13      	ldr	r3, [pc, #76]	@ (8000d60 <PWM_PC2_TIM1_CH3_Init+0x100>)
 8000d14:	6a1b      	ldr	r3, [r3, #32]
 8000d16:	4a12      	ldr	r2, [pc, #72]	@ (8000d60 <PWM_PC2_TIM1_CH3_Init+0x100>)
 8000d18:	f443 7380 	orr.w	r3, r3, #256	@ 0x100
 8000d1c:	6213      	str	r3, [r2, #32]

	TIM1->EGR |= TIM_EGR_UG;         // Update generation (re-init the counter)
 8000d1e:	4b10      	ldr	r3, [pc, #64]	@ (8000d60 <PWM_PC2_TIM1_CH3_Init+0x100>)
 8000d20:	695b      	ldr	r3, [r3, #20]
 8000d22:	4a0f      	ldr	r2, [pc, #60]	@ (8000d60 <PWM_PC2_TIM1_CH3_Init+0x100>)
 8000d24:	f043 0301 	orr.w	r3, r3, #1
 8000d28:	6153      	str	r3, [r2, #20]
	TIM1->CR1 |= TIM_CR1_ARPE;       // Auto reload preload enable
 8000d2a:	4b0d      	ldr	r3, [pc, #52]	@ (8000d60 <PWM_PC2_TIM1_CH3_Init+0x100>)
 8000d2c:	681b      	ldr	r3, [r3, #0]
 8000d2e:	4a0c      	ldr	r2, [pc, #48]	@ (8000d60 <PWM_PC2_TIM1_CH3_Init+0x100>)
 8000d30:	f043 0380 	orr.w	r3, r3, #128	@ 0x80
 8000d34:	6013      	str	r3, [r2, #0]
	TIM1->CR1 |= TIM_CR1_CEN;        // Enable counter on TIM1
 8000d36:	4b0a      	ldr	r3, [pc, #40]	@ (8000d60 <PWM_PC2_TIM1_CH3_Init+0x100>)
 8000d38:	681b      	ldr	r3, [r3, #0]
 8000d3a:	4a09      	ldr	r2, [pc, #36]	@ (8000d60 <PWM_PC2_TIM1_CH3_Init+0x100>)
 8000d3c:	f043 0301 	orr.w	r3, r3, #1
 8000d40:	6013      	str	r3, [r2, #0]
	TIM1->BDTR |= TIM_BDTR_MOE;      // Enable since TIM1 is a "Special Timer"
 8000d42:	4b07      	ldr	r3, [pc, #28]	@ (8000d60 <PWM_PC2_TIM1_CH3_Init+0x100>)
 8000d44:	6c5b      	ldr	r3, [r3, #68]	@ 0x44
 8000d46:	4a06      	ldr	r2, [pc, #24]	@ (8000d60 <PWM_PC2_TIM1_CH3_Init+0x100>)
 8000d48:	f443 4300 	orr.w	r3, r3, #32768	@ 0x8000
 8000d4c:	6453      	str	r3, [r2, #68]	@ 0x44
}
 8000d4e:	bf00      	nop
 8000d50:	46bd      	mov	sp, r7
 8000d52:	f85d 7b04 	ldr.w	r7, [sp], #4
 8000d56:	4770      	bx	lr
 8000d58:	40021000 	.word	0x40021000
 8000d5c:	48000800 	.word	0x48000800
 8000d60:	40012c00 	.word	0x40012c00

08000d64 <PWM_PC3_TIM1_CH4_Init>:

// PWM for PC3 (TIM1_CH4 -> AF2)
void PWM_PC3_TIM1_CH4_Init(void){
 8000d64:	b480      	push	{r7}
 8000d66:	af00      	add	r7, sp, #0
	// Config GPIO
	// Init Clk access to GPIOC
	RCC->AHB2ENR |= RCC_AHB2ENR_GPIOCEN;
 8000d68:	4b39      	ldr	r3, [pc, #228]	@ (8000e50 <PWM_PC3_TIM1_CH4_Init+0xec>)
 8000d6a:	6cdb      	ldr	r3, [r3, #76]	@ 0x4c
 8000d6c:	4a38      	ldr	r2, [pc, #224]	@ (8000e50 <PWM_PC3_TIM1_CH4_Init+0xec>)
 8000d6e:	f043 0304 	orr.w	r3, r3, #4
 8000d72:	64d3      	str	r3, [r2, #76]	@ 0x4c

	// Set PC2 output to Alt Funct Mode
	GPIOC->MODER  &= ~(0b11 << 6);
 8000d74:	4b37      	ldr	r3, [pc, #220]	@ (8000e54 <PWM_PC3_TIM1_CH4_Init+0xf0>)
 8000d76:	681b      	ldr	r3, [r3, #0]
 8000d78:	4a36      	ldr	r2, [pc, #216]	@ (8000e54 <PWM_PC3_TIM1_CH4_Init+0xf0>)
 8000d7a:	f023 03c0 	bic.w	r3, r3, #192	@ 0xc0
 8000d7e:	6013      	str	r3, [r2, #0]
	GPIOC->MODER  |= (0b10 << 6);     // MODE2 = Alt Funct Mode
 8000d80:	4b34      	ldr	r3, [pc, #208]	@ (8000e54 <PWM_PC3_TIM1_CH4_Init+0xf0>)
 8000d82:	681b      	ldr	r3, [r3, #0]
 8000d84:	4a33      	ldr	r2, [pc, #204]	@ (8000e54 <PWM_PC3_TIM1_CH4_Init+0xf0>)
 8000d86:	f043 0380 	orr.w	r3, r3, #128	@ 0x80
 8000d8a:	6013      	str	r3, [r2, #0]
	GPIOC->AFR[0] &= ~(0b1111 << 12);
 8000d8c:	4b31      	ldr	r3, [pc, #196]	@ (8000e54 <PWM_PC3_TIM1_CH4_Init+0xf0>)
 8000d8e:	6a1b      	ldr	r3, [r3, #32]
 8000d90:	4a30      	ldr	r2, [pc, #192]	@ (8000e54 <PWM_PC3_TIM1_CH4_Init+0xf0>)
 8000d92:	f423 4370 	bic.w	r3, r3, #61440	@ 0xf000
 8000d96:	6213      	str	r3, [r2, #32]
	GPIOC->AFR[0] |= (0b0010 << 12);  // AFSEL3 set to AF2
 8000d98:	4b2e      	ldr	r3, [pc, #184]	@ (8000e54 <PWM_PC3_TIM1_CH4_Init+0xf0>)
 8000d9a:	6a1b      	ldr	r3, [r3, #32]
 8000d9c:	4a2d      	ldr	r2, [pc, #180]	@ (8000e54 <PWM_PC3_TIM1_CH4_Init+0xf0>)
 8000d9e:	f443 5300 	orr.w	r3, r3, #8192	@ 0x2000
 8000da2:	6213      	str	r3, [r2, #32]

	// GPIO settings
	GPIOC->OSPEEDR |= (0b10 << 6);     // High speed pin
 8000da4:	4b2b      	ldr	r3, [pc, #172]	@ (8000e54 <PWM_PC3_TIM1_CH4_Init+0xf0>)
 8000da6:	689b      	ldr	r3, [r3, #8]
 8000da8:	4a2a      	ldr	r2, [pc, #168]	@ (8000e54 <PWM_PC3_TIM1_CH4_Init+0xf0>)
 8000daa:	f043 0380 	orr.w	r3, r3, #128	@ 0x80
 8000dae:	6093      	str	r3, [r2, #8]
	GPIOC->OTYPER &= ~GPIO_OTYPER_OT3; // No Push-pull
 8000db0:	4b28      	ldr	r3, [pc, #160]	@ (8000e54 <PWM_PC3_TIM1_CH4_Init+0xf0>)
 8000db2:	685b      	ldr	r3, [r3, #4]
 8000db4:	4a27      	ldr	r2, [pc, #156]	@ (8000e54 <PWM_PC3_TIM1_CH4_Init+0xf0>)
 8000db6:	f023 0308 	bic.w	r3, r3, #8
 8000dba:	6053      	str	r3, [r2, #4]
	GPIOC->PUPDR  &= ~(0b11 << 6);     // No pull-up/pull-down
 8000dbc:	4b25      	ldr	r3, [pc, #148]	@ (8000e54 <PWM_PC3_TIM1_CH4_Init+0xf0>)
 8000dbe:	68db      	ldr	r3, [r3, #12]
 8000dc0:	4a24      	ldr	r2, [pc, #144]	@ (8000e54 <PWM_PC3_TIM1_CH4_Init+0xf0>)
 8000dc2:	f023 03c0 	bic.w	r3, r3, #192	@ 0xc0
 8000dc6:	60d3      	str	r3, [r2, #12]

	// Config Timer
	// Init Clk access to TIM1
	RCC->APB2ENR |= RCC_APB2ENR_TIM1EN;
 8000dc8:	4b21      	ldr	r3, [pc, #132]	@ (8000e50 <PWM_PC3_TIM1_CH4_Init+0xec>)
 8000dca:	6e1b      	ldr	r3, [r3, #96]	@ 0x60
 8000dcc:	4a20      	ldr	r2, [pc, #128]	@ (8000e50 <PWM_PC3_TIM1_CH4_Init+0xec>)
 8000dce:	f443 6300 	orr.w	r3, r3, #2048	@ 0x800
 8000dd2:	6613      	str	r3, [r2, #96]	@ 0x60
	// Set TIM4 prescaler
	     // freq = Sys_Clk / (PSC + 1)(ARR + 1)
	     // 100k Hz = 16 Mhz / (0 + 1)(160 + 1)
	     // therefore, set PSC = 0 and ARR = 159

	TIM1->PSC = 0;                   // Clk pre-scaler -> 16MHz / 160 = 100k Hz
 8000dd4:	4b20      	ldr	r3, [pc, #128]	@ (8000e58 <PWM_PC3_TIM1_CH4_Init+0xf4>)
 8000dd6:	2200      	movs	r2, #0
 8000dd8:	629a      	str	r2, [r3, #40]	@ 0x28
	TIM1->ARR = 160 - 1;             // Period     (cycle length)
 8000dda:	4b1f      	ldr	r3, [pc, #124]	@ (8000e58 <PWM_PC3_TIM1_CH4_Init+0xf4>)
 8000ddc:	229f      	movs	r2, #159	@ 0x9f
 8000dde:	62da      	str	r2, [r3, #44]	@ 0x2c
	TIM1->CCR4 = 0;                 // Sets Duty Cycle (ON state) , CCR2 for CH2
 8000de0:	4b1d      	ldr	r3, [pc, #116]	@ (8000e58 <PWM_PC3_TIM1_CH4_Init+0xf4>)
 8000de2:	2200      	movs	r2, #0
 8000de4:	641a      	str	r2, [r3, #64]	@ 0x40

	// Other timer settings
	TIM1->CCMR2 &= ~(0b111 << 12);    // Alternate register
 8000de6:	4b1c      	ldr	r3, [pc, #112]	@ (8000e58 <PWM_PC3_TIM1_CH4_Init+0xf4>)
 8000de8:	69db      	ldr	r3, [r3, #28]
 8000dea:	4a1b      	ldr	r2, [pc, #108]	@ (8000e58 <PWM_PC3_TIM1_CH4_Init+0xf4>)
 8000dec:	f423 43e0 	bic.w	r3, r3, #28672	@ 0x7000
 8000df0:	61d3      	str	r3, [r2, #28]
	TIM1->CCMR2 |=  (0b110 << 12);    // CH4 set to PWM mode 1
 8000df2:	4b19      	ldr	r3, [pc, #100]	@ (8000e58 <PWM_PC3_TIM1_CH4_Init+0xf4>)
 8000df4:	69db      	ldr	r3, [r3, #28]
 8000df6:	4a18      	ldr	r2, [pc, #96]	@ (8000e58 <PWM_PC3_TIM1_CH4_Init+0xf4>)
 8000df8:	f443 43c0 	orr.w	r3, r3, #24576	@ 0x6000
 8000dfc:	61d3      	str	r3, [r2, #28]
	TIM1->CCMR2 |= TIM_CCMR2_OC4PE;  // Enable pre-load register CH4
 8000dfe:	4b16      	ldr	r3, [pc, #88]	@ (8000e58 <PWM_PC3_TIM1_CH4_Init+0xf4>)
 8000e00:	69db      	ldr	r3, [r3, #28]
 8000e02:	4a15      	ldr	r2, [pc, #84]	@ (8000e58 <PWM_PC3_TIM1_CH4_Init+0xf4>)
 8000e04:	f443 6300 	orr.w	r3, r3, #2048	@ 0x800
 8000e08:	61d3      	str	r3, [r2, #28]

	TIM1->CCER &= ~TIM_CCER_CC4P;    // set output polarity to active HIGH in CH4
 8000e0a:	4b13      	ldr	r3, [pc, #76]	@ (8000e58 <PWM_PC3_TIM1_CH4_Init+0xf4>)
 8000e0c:	6a1b      	ldr	r3, [r3, #32]
 8000e0e:	4a12      	ldr	r2, [pc, #72]	@ (8000e58 <PWM_PC3_TIM1_CH4_Init+0xf4>)
 8000e10:	f423 5300 	bic.w	r3, r3, #8192	@ 0x2000
 8000e14:	6213      	str	r3, [r2, #32]
	TIM1->CCER |= TIM_CCER_CC4E;     // Capture/Compare enabled for CH4
 8000e16:	4b10      	ldr	r3, [pc, #64]	@ (8000e58 <PWM_PC3_TIM1_CH4_Init+0xf4>)
 8000e18:	6a1b      	ldr	r3, [r3, #32]
 8000e1a:	4a0f      	ldr	r2, [pc, #60]	@ (8000e58 <PWM_PC3_TIM1_CH4_Init+0xf4>)
 8000e1c:	f443 5380 	orr.w	r3, r3, #4096	@ 0x1000
 8000e20:	6213      	str	r3, [r2, #32]

	TIM1->EGR |= TIM_EGR_UG;         // Update generation (re-init the counter)
 8000e22:	4b0d      	ldr	r3, [pc, #52]	@ (8000e58 <PWM_PC3_TIM1_CH4_Init+0xf4>)
 8000e24:	695b      	ldr	r3, [r3, #20]
 8000e26:	4a0c      	ldr	r2, [pc, #48]	@ (8000e58 <PWM_PC3_TIM1_CH4_Init+0xf4>)
 8000e28:	f043 0301 	orr.w	r3, r3, #1
 8000e2c:	6153      	str	r3, [r2, #20]
	TIM1->CR1 |= TIM_CR1_ARPE;       // Auto reload preload enable
 8000e2e:	4b0a      	ldr	r3, [pc, #40]	@ (8000e58 <PWM_PC3_TIM1_CH4_Init+0xf4>)
 8000e30:	681b      	ldr	r3, [r3, #0]
 8000e32:	4a09      	ldr	r2, [pc, #36]	@ (8000e58 <PWM_PC3_TIM1_CH4_Init+0xf4>)
 8000e34:	f043 0380 	orr.w	r3, r3, #128	@ 0x80
 8000e38:	6013      	str	r3, [r2, #0]
	TIM1->CR1 |= TIM_CR1_CEN;        // Enable counter on TIM1
 8000e3a:	4b07      	ldr	r3, [pc, #28]	@ (8000e58 <PWM_PC3_TIM1_CH4_Init+0xf4>)
 8000e3c:	681b      	ldr	r3, [r3, #0]
 8000e3e:	4a06      	ldr	r2, [pc, #24]	@ (8000e58 <PWM_PC3_TIM1_CH4_Init+0xf4>)
 8000e40:	f043 0301 	orr.w	r3, r3, #1
 8000e44:	6013      	str	r3, [r2, #0]
}
 8000e46:	bf00      	nop
 8000e48:	46bd      	mov	sp, r7
 8000e4a:	f85d 7b04 	ldr.w	r7, [sp], #4
 8000e4e:	4770      	bx	lr
 8000e50:	40021000 	.word	0x40021000
 8000e54:	48000800 	.word	0x48000800
 8000e58:	40012c00 	.word	0x40012c00

08000e5c <NMI_Handler>:
/******************************************************************************/
/**
  * @brief This function handles Non maskable interrupt.
  */
void NMI_Handler(void)
{
 8000e5c:	b480      	push	{r7}
 8000e5e:	af00      	add	r7, sp, #0
  /* USER CODE BEGIN NonMaskableInt_IRQn 0 */

  /* USER CODE END NonMaskableInt_IRQn 0 */
  /* USER CODE BEGIN NonMaskableInt_IRQn 1 */
   while (1)
 8000e60:	bf00      	nop
 8000e62:	e7fd      	b.n	8000e60 <NMI_Handler+0x4>

08000e64 <HardFault_Handler>:

/**
  * @brief This function handles Hard fault interrupt.
  */
void HardFault_Handler(void)
{
 8000e64:	b480      	push	{r7}
 8000e66:	af00      	add	r7, sp, #0
  /* USER CODE BEGIN HardFault_IRQn 0 */

  /* USER CODE END HardFault_IRQn 0 */
  while (1)
 8000e68:	bf00      	nop
 8000e6a:	e7fd      	b.n	8000e68 <HardFault_Handler+0x4>

08000e6c <MemManage_Handler>:

/**
  * @brief This function handles Memory management fault.
  */
void MemManage_Handler(void)
{
 8000e6c:	b480      	push	{r7}
 8000e6e:	af00      	add	r7, sp, #0
  /* USER CODE BEGIN MemoryManagement_IRQn 0 */

  /* USER CODE END MemoryManagement_IRQn 0 */
  while (1)
 8000e70:	bf00      	nop
 8000e72:	e7fd      	b.n	8000e70 <MemManage_Handler+0x4>

08000e74 <BusFault_Handler>:

/**
  * @brief This function handles Prefetch fault, memory access fault.
  */
void BusFault_Handler(void)
{
 8000e74:	b480      	push	{r7}
 8000e76:	af00      	add	r7, sp, #0
  /* USER CODE BEGIN BusFault_IRQn 0 */

  /* USER CODE END BusFault_IRQn 0 */
  while (1)
 8000e78:	bf00      	nop
 8000e7a:	e7fd      	b.n	8000e78 <BusFault_Handler+0x4>

08000e7c <UsageFault_Handler>:

/**
  * @brief This function handles Undefined instruction or illegal state.
  */
void UsageFault_Handler(void)
{
 8000e7c:	b480      	push	{r7}
 8000e7e:	af00      	add	r7, sp, #0
  /* USER CODE BEGIN UsageFault_IRQn 0 */

  /* USER CODE END UsageFault_IRQn 0 */
  while (1)
 8000e80:	bf00      	nop
 8000e82:	e7fd      	b.n	8000e80 <UsageFault_Handler+0x4>

08000e84 <SVC_Handler>:

/**
  * @brief This function handles System service call via SWI instruction.
  */
void SVC_Handler(void)
{
 8000e84:	b480      	push	{r7}
 8000e86:	af00      	add	r7, sp, #0

  /* USER CODE END SVCall_IRQn 0 */
  /* USER CODE BEGIN SVCall_IRQn 1 */

  /* USER CODE END SVCall_IRQn 1 */
}
 8000e88:	bf00      	nop
 8000e8a:	46bd      	mov	sp, r7
 8000e8c:	f85d 7b04 	ldr.w	r7, [sp], #4
 8000e90:	4770      	bx	lr

08000e92 <DebugMon_Handler>:

/**
  * @brief This function handles Debug monitor.
  */
void DebugMon_Handler(void)
{
 8000e92:	b480      	push	{r7}
 8000e94:	af00      	add	r7, sp, #0

  /* USER CODE END DebugMonitor_IRQn 0 */
  /* USER CODE BEGIN DebugMonitor_IRQn 1 */

  /* USER CODE END DebugMonitor_IRQn 1 */
}
 8000e96:	bf00      	nop
 8000e98:	46bd      	mov	sp, r7
 8000e9a:	f85d 7b04 	ldr.w	r7, [sp], #4
 8000e9e:	4770      	bx	lr

08000ea0 <PendSV_Handler>:

/**
  * @brief This function handles Pendable request for system service.
  */
void PendSV_Handler(void)
{
 8000ea0:	b480      	push	{r7}
 8000ea2:	af00      	add	r7, sp, #0

  /* USER CODE END PendSV_IRQn 0 */
  /* USER CODE BEGIN PendSV_IRQn 1 */

  /* USER CODE END PendSV_IRQn 1 */
}
 8000ea4:	bf00      	nop
 8000ea6:	46bd      	mov	sp, r7
 8000ea8:	f85d 7b04 	ldr.w	r7, [sp], #4
 8000eac:	4770      	bx	lr

08000eae <SysTick_Handler>:

/**
  * @brief This function handles System tick timer.
  */
void SysTick_Handler(void)
{
 8000eae:	b580      	push	{r7, lr}
 8000eb0:	af00      	add	r7, sp, #0
  /* USER CODE BEGIN SysTick_IRQn 0 */

  /* USER CODE END SysTick_IRQn 0 */
  HAL_IncTick();
 8000eb2:	f000 fdc3 	bl	8001a3c <HAL_IncTick>
  /* USER CODE BEGIN SysTick_IRQn 1 */

  /* USER CODE END SysTick_IRQn 1 */
}
 8000eb6:	bf00      	nop
 8000eb8:	bd80      	pop	{r7, pc}

08000eba <_read>:
  _kill(status, -1);
  while (1) {}    /* Make sure we hang here */
}

__attribute__((weak)) int _read(int file, char *ptr, int len)
{
 8000eba:	b580      	push	{r7, lr}
 8000ebc:	b086      	sub	sp, #24
 8000ebe:	af00      	add	r7, sp, #0
 8000ec0:	60f8      	str	r0, [r7, #12]
 8000ec2:	60b9      	str	r1, [r7, #8]
 8000ec4:	607a      	str	r2, [r7, #4]
  (void)file;
  int DataIdx;

  for (DataIdx = 0; DataIdx < len; DataIdx++)
 8000ec6:	2300      	movs	r3, #0
 8000ec8:	617b      	str	r3, [r7, #20]
 8000eca:	e00a      	b.n	8000ee2 <_read+0x28>
  {
    *ptr++ = __io_getchar();
 8000ecc:	f7ff fc34 	bl	8000738 <__io_getchar>
 8000ed0:	4601      	mov	r1, r0
 8000ed2:	68bb      	ldr	r3, [r7, #8]
 8000ed4:	1c5a      	adds	r2, r3, #1
 8000ed6:	60ba      	str	r2, [r7, #8]
 8000ed8:	b2ca      	uxtb	r2, r1
 8000eda:	701a      	strb	r2, [r3, #0]
  for (DataIdx = 0; DataIdx < len; DataIdx++)
 8000edc:	697b      	ldr	r3, [r7, #20]
 8000ede:	3301      	adds	r3, #1
 8000ee0:	617b      	str	r3, [r7, #20]
 8000ee2:	697a      	ldr	r2, [r7, #20]
 8000ee4:	687b      	ldr	r3, [r7, #4]
 8000ee6:	429a      	cmp	r2, r3
 8000ee8:	dbf0      	blt.n	8000ecc <_read+0x12>
  }

  return len;
 8000eea:	687b      	ldr	r3, [r7, #4]
}
 8000eec:	4618      	mov	r0, r3
 8000eee:	3718      	adds	r7, #24
 8000ef0:	46bd      	mov	sp, r7
 8000ef2:	bd80      	pop	{r7, pc}

08000ef4 <_write>:

__attribute__((weak)) int _write(int file, char *ptr, int len)
{
 8000ef4:	b580      	push	{r7, lr}
 8000ef6:	b086      	sub	sp, #24
 8000ef8:	af00      	add	r7, sp, #0
 8000efa:	60f8      	str	r0, [r7, #12]
 8000efc:	60b9      	str	r1, [r7, #8]
 8000efe:	607a      	str	r2, [r7, #4]
  (void)file;
  int DataIdx;

  for (DataIdx = 0; DataIdx < len; DataIdx++)
 8000f00:	2300      	movs	r3, #0
 8000f02:	617b      	str	r3, [r7, #20]
 8000f04:	e009      	b.n	8000f1a <_write+0x26>
  {
    __io_putchar(*ptr++);
 8000f06:	68bb      	ldr	r3, [r7, #8]
 8000f08:	1c5a      	adds	r2, r3, #1
 8000f0a:	60ba      	str	r2, [r7, #8]
 8000f0c:	781b      	ldrb	r3, [r3, #0]
 8000f0e:	4618      	mov	r0, r3
 8000f10:	f7ff fc78 	bl	8000804 <__io_putchar>
  for (DataIdx = 0; DataIdx < len; DataIdx++)
 8000f14:	697b      	ldr	r3, [r7, #20]
 8000f16:	3301      	adds	r3, #1
 8000f18:	617b      	str	r3, [r7, #20]
 8000f1a:	697a      	ldr	r2, [r7, #20]
 8000f1c:	687b      	ldr	r3, [r7, #4]
 8000f1e:	429a      	cmp	r2, r3
 8000f20:	dbf1      	blt.n	8000f06 <_write+0x12>
  }
  return len;
 8000f22:	687b      	ldr	r3, [r7, #4]
}
 8000f24:	4618      	mov	r0, r3
 8000f26:	3718      	adds	r7, #24
 8000f28:	46bd      	mov	sp, r7
 8000f2a:	bd80      	pop	{r7, pc}

08000f2c <_close>:

int _close(int file)
{
 8000f2c:	b480      	push	{r7}
 8000f2e:	b083      	sub	sp, #12
 8000f30:	af00      	add	r7, sp, #0
 8000f32:	6078      	str	r0, [r7, #4]
  (void)file;
  return -1;
 8000f34:	f04f 33ff 	mov.w	r3, #4294967295
}
 8000f38:	4618      	mov	r0, r3
 8000f3a:	370c      	adds	r7, #12
 8000f3c:	46bd      	mov	sp, r7
 8000f3e:	f85d 7b04 	ldr.w	r7, [sp], #4
 8000f42:	4770      	bx	lr

08000f44 <_fstat>:


int _fstat(int file, struct stat *st)
{
 8000f44:	b480      	push	{r7}
 8000f46:	b083      	sub	sp, #12
 8000f48:	af00      	add	r7, sp, #0
 8000f4a:	6078      	str	r0, [r7, #4]
 8000f4c:	6039      	str	r1, [r7, #0]
  (void)file;
  st->st_mode = S_IFCHR;
 8000f4e:	683b      	ldr	r3, [r7, #0]
 8000f50:	f44f 5200 	mov.w	r2, #8192	@ 0x2000
 8000f54:	605a      	str	r2, [r3, #4]
  return 0;
 8000f56:	2300      	movs	r3, #0
}
 8000f58:	4618      	mov	r0, r3
 8000f5a:	370c      	adds	r7, #12
 8000f5c:	46bd      	mov	sp, r7
 8000f5e:	f85d 7b04 	ldr.w	r7, [sp], #4
 8000f62:	4770      	bx	lr

08000f64 <_isatty>:

int _isatty(int file)
{
 8000f64:	b480      	push	{r7}
 8000f66:	b083      	sub	sp, #12
 8000f68:	af00      	add	r7, sp, #0
 8000f6a:	6078      	str	r0, [r7, #4]
  (void)file;
  return 1;
 8000f6c:	2301      	movs	r3, #1
}
 8000f6e:	4618      	mov	r0, r3
 8000f70:	370c      	adds	r7, #12
 8000f72:	46bd      	mov	sp, r7
 8000f74:	f85d 7b04 	ldr.w	r7, [sp], #4
 8000f78:	4770      	bx	lr

08000f7a <_lseek>:

int _lseek(int file, int ptr, int dir)
{
 8000f7a:	b480      	push	{r7}
 8000f7c:	b085      	sub	sp, #20
 8000f7e:	af00      	add	r7, sp, #0
 8000f80:	60f8      	str	r0, [r7, #12]
 8000f82:	60b9      	str	r1, [r7, #8]
 8000f84:	607a      	str	r2, [r7, #4]
  (void)file;
  (void)ptr;
  (void)dir;
  return 0;
 8000f86:	2300      	movs	r3, #0
}
 8000f88:	4618      	mov	r0, r3
 8000f8a:	3714      	adds	r7, #20
 8000f8c:	46bd      	mov	sp, r7
 8000f8e:	f85d 7b04 	ldr.w	r7, [sp], #4
 8000f92:	4770      	bx	lr

08000f94 <_sbrk>:
 *
 * @param incr Memory size
 * @return Pointer to allocated memory
 */
void *_sbrk(ptrdiff_t incr)
{
 8000f94:	b580      	push	{r7, lr}
 8000f96:	b086      	sub	sp, #24
 8000f98:	af00      	add	r7, sp, #0
 8000f9a:	6078      	str	r0, [r7, #4]
  extern uint8_t _end; /* Symbol defined in the linker script */
  extern uint8_t _estack; /* Symbol defined in the linker script */
  extern uint32_t _Min_Stack_Size; /* Symbol defined in the linker script */
  const uint32_t stack_limit = (uint32_t)&_estack - (uint32_t)&_Min_Stack_Size;
 8000f9c:	4a14      	ldr	r2, [pc, #80]	@ (8000ff0 <_sbrk+0x5c>)
 8000f9e:	4b15      	ldr	r3, [pc, #84]	@ (8000ff4 <_sbrk+0x60>)
 8000fa0:	1ad3      	subs	r3, r2, r3
 8000fa2:	617b      	str	r3, [r7, #20]
  const uint8_t *max_heap = (uint8_t *)stack_limit;
 8000fa4:	697b      	ldr	r3, [r7, #20]
 8000fa6:	613b      	str	r3, [r7, #16]
  uint8_t *prev_heap_end;

  /* Initialize heap end at first call */
  if (NULL == __sbrk_heap_end)
 8000fa8:	4b13      	ldr	r3, [pc, #76]	@ (8000ff8 <_sbrk+0x64>)
 8000faa:	681b      	ldr	r3, [r3, #0]
 8000fac:	2b00      	cmp	r3, #0
 8000fae:	d102      	bne.n	8000fb6 <_sbrk+0x22>
  {
    __sbrk_heap_end = &_end;
 8000fb0:	4b11      	ldr	r3, [pc, #68]	@ (8000ff8 <_sbrk+0x64>)
 8000fb2:	4a12      	ldr	r2, [pc, #72]	@ (8000ffc <_sbrk+0x68>)
 8000fb4:	601a      	str	r2, [r3, #0]
  }

  /* Protect heap from growing into the reserved MSP stack */
  if (__sbrk_heap_end + incr > max_heap)
 8000fb6:	4b10      	ldr	r3, [pc, #64]	@ (8000ff8 <_sbrk+0x64>)
 8000fb8:	681a      	ldr	r2, [r3, #0]
 8000fba:	687b      	ldr	r3, [r7, #4]
 8000fbc:	4413      	add	r3, r2
 8000fbe:	693a      	ldr	r2, [r7, #16]
 8000fc0:	429a      	cmp	r2, r3
 8000fc2:	d207      	bcs.n	8000fd4 <_sbrk+0x40>
  {
    errno = ENOMEM;
 8000fc4:	f000 ff92 	bl	8001eec <__errno>
 8000fc8:	4603      	mov	r3, r0
 8000fca:	220c      	movs	r2, #12
 8000fcc:	601a      	str	r2, [r3, #0]
    return (void *)-1;
 8000fce:	f04f 33ff 	mov.w	r3, #4294967295
 8000fd2:	e009      	b.n	8000fe8 <_sbrk+0x54>
  }

  prev_heap_end = __sbrk_heap_end;
 8000fd4:	4b08      	ldr	r3, [pc, #32]	@ (8000ff8 <_sbrk+0x64>)
 8000fd6:	681b      	ldr	r3, [r3, #0]
 8000fd8:	60fb      	str	r3, [r7, #12]
  __sbrk_heap_end += incr;
 8000fda:	4b07      	ldr	r3, [pc, #28]	@ (8000ff8 <_sbrk+0x64>)
 8000fdc:	681a      	ldr	r2, [r3, #0]
 8000fde:	687b      	ldr	r3, [r7, #4]
 8000fe0:	4413      	add	r3, r2
 8000fe2:	4a05      	ldr	r2, [pc, #20]	@ (8000ff8 <_sbrk+0x64>)
 8000fe4:	6013      	str	r3, [r2, #0]

  return (void *)prev_heap_end;
 8000fe6:	68fb      	ldr	r3, [r7, #12]
}
 8000fe8:	4618      	mov	r0, r3
 8000fea:	3718      	adds	r7, #24
 8000fec:	46bd      	mov	sp, r7
 8000fee:	bd80      	pop	{r7, pc}
 8000ff0:	20008000 	.word	0x20008000
 8000ff4:	00000400 	.word	0x00000400
 8000ff8:	200000a4 	.word	0x200000a4
 8000ffc:	20000200 	.word	0x20000200

08001000 <SystemInit>:
  * @param  None
  * @retval None
  */

void SystemInit(void)
{
 8001000:	b480      	push	{r7}
 8001002:	af00      	add	r7, sp, #0
  /* FPU settings ------------------------------------------------------------*/
  #if (__FPU_PRESENT == 1) && (__FPU_USED == 1)
    SCB->CPACR |= ((3UL << (10*2))|(3UL << (11*2)));  /* set CP10 and CP11 Full Access */
 8001004:	4b06      	ldr	r3, [pc, #24]	@ (8001020 <SystemInit+0x20>)
 8001006:	f8d3 3088 	ldr.w	r3, [r3, #136]	@ 0x88
 800100a:	4a05      	ldr	r2, [pc, #20]	@ (8001020 <SystemInit+0x20>)
 800100c:	f443 0370 	orr.w	r3, r3, #15728640	@ 0xf00000
 8001010:	f8c2 3088 	str.w	r3, [r2, #136]	@ 0x88

  /* Configure the Vector Table location add offset address ------------------*/
#if defined(USER_VECT_TAB_ADDRESS)
  SCB->VTOR = VECT_TAB_BASE_ADDRESS | VECT_TAB_OFFSET; /* Vector Table Relocation in Internal SRAM */
#endif /* USER_VECT_TAB_ADDRESS */
}
 8001014:	bf00      	nop
 8001016:	46bd      	mov	sp, r7
 8001018:	f85d 7b04 	ldr.w	r7, [sp], #4
 800101c:	4770      	bx	lr
 800101e:	bf00      	nop
 8001020:	e000ed00 	.word	0xe000ed00

08001024 <csn_high>:
//extern SPI_HandleTypeDef hspiX;
//extern TIM_HandleTypeDef htimX;

// PC10 -> Set to HIGH
// = SPI Chip Select
void csn_high(void){
 8001024:	b480      	push	{r7}
 8001026:	af00      	add	r7, sp, #0
	// init Clk to GPIOA
	RCC->AHB2ENR |= RCC_AHB2ENR_GPIOCEN;
 8001028:	4b0e      	ldr	r3, [pc, #56]	@ (8001064 <csn_high+0x40>)
 800102a:	6cdb      	ldr	r3, [r3, #76]	@ 0x4c
 800102c:	4a0d      	ldr	r2, [pc, #52]	@ (8001064 <csn_high+0x40>)
 800102e:	f043 0304 	orr.w	r3, r3, #4
 8001032:	64d3      	str	r3, [r2, #76]	@ 0x4c

	// Clear PC2
	GPIOC->MODER &= ~(0b11 << 20);
 8001034:	4b0c      	ldr	r3, [pc, #48]	@ (8001068 <csn_high+0x44>)
 8001036:	681b      	ldr	r3, [r3, #0]
 8001038:	4a0b      	ldr	r2, [pc, #44]	@ (8001068 <csn_high+0x44>)
 800103a:	f423 1340 	bic.w	r3, r3, #3145728	@ 0x300000
 800103e:	6013      	str	r3, [r2, #0]

	// Set PC2 as output
	GPIOC->MODER |= (0b01 << 20);
 8001040:	4b09      	ldr	r3, [pc, #36]	@ (8001068 <csn_high+0x44>)
 8001042:	681b      	ldr	r3, [r3, #0]
 8001044:	4a08      	ldr	r2, [pc, #32]	@ (8001068 <csn_high+0x44>)
 8001046:	f443 1380 	orr.w	r3, r3, #1048576	@ 0x100000
 800104a:	6013      	str	r3, [r2, #0]

	// Set to HIGH
	GPIOC->ODR |= (1 << 10);
 800104c:	4b06      	ldr	r3, [pc, #24]	@ (8001068 <csn_high+0x44>)
 800104e:	695b      	ldr	r3, [r3, #20]
 8001050:	4a05      	ldr	r2, [pc, #20]	@ (8001068 <csn_high+0x44>)
 8001052:	f443 6380 	orr.w	r3, r3, #1024	@ 0x400
 8001056:	6153      	str	r3, [r2, #20]
}
 8001058:	bf00      	nop
 800105a:	46bd      	mov	sp, r7
 800105c:	f85d 7b04 	ldr.w	r7, [sp], #4
 8001060:	4770      	bx	lr
 8001062:	bf00      	nop
 8001064:	40021000 	.word	0x40021000
 8001068:	48000800 	.word	0x48000800

0800106c <csn_low>:
// PC10 -> Set to LOW
void csn_low(void){
 800106c:	b480      	push	{r7}
 800106e:	af00      	add	r7, sp, #0
	// init Clk to GPIOA
	RCC->AHB2ENR |= RCC_AHB2ENR_GPIOCEN;
 8001070:	4b0e      	ldr	r3, [pc, #56]	@ (80010ac <csn_low+0x40>)
 8001072:	6cdb      	ldr	r3, [r3, #76]	@ 0x4c
 8001074:	4a0d      	ldr	r2, [pc, #52]	@ (80010ac <csn_low+0x40>)
 8001076:	f043 0304 	orr.w	r3, r3, #4
 800107a:	64d3      	str	r3, [r2, #76]	@ 0x4c

	// Clear PC10
	GPIOC->MODER &= ~(0b11 << 20);
 800107c:	4b0c      	ldr	r3, [pc, #48]	@ (80010b0 <csn_low+0x44>)
 800107e:	681b      	ldr	r3, [r3, #0]
 8001080:	4a0b      	ldr	r2, [pc, #44]	@ (80010b0 <csn_low+0x44>)
 8001082:	f423 1340 	bic.w	r3, r3, #3145728	@ 0x300000
 8001086:	6013      	str	r3, [r2, #0]

	// Set PC10 as output
	GPIOC->MODER |= (0b01 << 20);
 8001088:	4b09      	ldr	r3, [pc, #36]	@ (80010b0 <csn_low+0x44>)
 800108a:	681b      	ldr	r3, [r3, #0]
 800108c:	4a08      	ldr	r2, [pc, #32]	@ (80010b0 <csn_low+0x44>)
 800108e:	f443 1380 	orr.w	r3, r3, #1048576	@ 0x100000
 8001092:	6013      	str	r3, [r2, #0]

	// Set to LOW
	GPIOC->ODR &= ~ (1 << 10);
 8001094:	4b06      	ldr	r3, [pc, #24]	@ (80010b0 <csn_low+0x44>)
 8001096:	695b      	ldr	r3, [r3, #20]
 8001098:	4a05      	ldr	r2, [pc, #20]	@ (80010b0 <csn_low+0x44>)
 800109a:	f423 6380 	bic.w	r3, r3, #1024	@ 0x400
 800109e:	6153      	str	r3, [r2, #20]
}
 80010a0:	bf00      	nop
 80010a2:	46bd      	mov	sp, r7
 80010a4:	f85d 7b04 	ldr.w	r7, [sp], #4
 80010a8:	4770      	bx	lr
 80010aa:	bf00      	nop
 80010ac:	40021000 	.word	0x40021000
 80010b0:	48000800 	.word	0x48000800

080010b4 <ce_high>:

// Chip Enable Activates RX or TX mode
// PC11 -> Set to HIGH
void ce_high(void){
 80010b4:	b480      	push	{r7}
 80010b6:	af00      	add	r7, sp, #0
	// init Clk to GPIOA
	RCC->AHB2ENR |= RCC_AHB2ENR_GPIOCEN;
 80010b8:	4b0e      	ldr	r3, [pc, #56]	@ (80010f4 <ce_high+0x40>)
 80010ba:	6cdb      	ldr	r3, [r3, #76]	@ 0x4c
 80010bc:	4a0d      	ldr	r2, [pc, #52]	@ (80010f4 <ce_high+0x40>)
 80010be:	f043 0304 	orr.w	r3, r3, #4
 80010c2:	64d3      	str	r3, [r2, #76]	@ 0x4c

	// Clear PC11
	GPIOC->MODER &= ~(0b11 << 22);
 80010c4:	4b0c      	ldr	r3, [pc, #48]	@ (80010f8 <ce_high+0x44>)
 80010c6:	681b      	ldr	r3, [r3, #0]
 80010c8:	4a0b      	ldr	r2, [pc, #44]	@ (80010f8 <ce_high+0x44>)
 80010ca:	f423 0340 	bic.w	r3, r3, #12582912	@ 0xc00000
 80010ce:	6013      	str	r3, [r2, #0]

	// Set PC11 as output
	GPIOC->MODER |= (0b01 << 22);
 80010d0:	4b09      	ldr	r3, [pc, #36]	@ (80010f8 <ce_high+0x44>)
 80010d2:	681b      	ldr	r3, [r3, #0]
 80010d4:	4a08      	ldr	r2, [pc, #32]	@ (80010f8 <ce_high+0x44>)
 80010d6:	f443 0380 	orr.w	r3, r3, #4194304	@ 0x400000
 80010da:	6013      	str	r3, [r2, #0]

	// Set to HIGH
	GPIOC->ODR |= (1 << 11);
 80010dc:	4b06      	ldr	r3, [pc, #24]	@ (80010f8 <ce_high+0x44>)
 80010de:	695b      	ldr	r3, [r3, #20]
 80010e0:	4a05      	ldr	r2, [pc, #20]	@ (80010f8 <ce_high+0x44>)
 80010e2:	f443 6300 	orr.w	r3, r3, #2048	@ 0x800
 80010e6:	6153      	str	r3, [r2, #20]
}
 80010e8:	bf00      	nop
 80010ea:	46bd      	mov	sp, r7
 80010ec:	f85d 7b04 	ldr.w	r7, [sp], #4
 80010f0:	4770      	bx	lr
 80010f2:	bf00      	nop
 80010f4:	40021000 	.word	0x40021000
 80010f8:	48000800 	.word	0x48000800

080010fc <ce_low>:
// PC11 -> Set to LOW
void ce_low(void){
 80010fc:	b480      	push	{r7}
 80010fe:	af00      	add	r7, sp, #0
	// init Clk to GPIOA
	RCC->AHB2ENR |= RCC_AHB2ENR_GPIOCEN;
 8001100:	4b0e      	ldr	r3, [pc, #56]	@ (800113c <ce_low+0x40>)
 8001102:	6cdb      	ldr	r3, [r3, #76]	@ 0x4c
 8001104:	4a0d      	ldr	r2, [pc, #52]	@ (800113c <ce_low+0x40>)
 8001106:	f043 0304 	orr.w	r3, r3, #4
 800110a:	64d3      	str	r3, [r2, #76]	@ 0x4c

	// Clear PC2
	GPIOC->MODER &= ~(0b11 << 6);
 800110c:	4b0c      	ldr	r3, [pc, #48]	@ (8001140 <ce_low+0x44>)
 800110e:	681b      	ldr	r3, [r3, #0]
 8001110:	4a0b      	ldr	r2, [pc, #44]	@ (8001140 <ce_low+0x44>)
 8001112:	f023 03c0 	bic.w	r3, r3, #192	@ 0xc0
 8001116:	6013      	str	r3, [r2, #0]

	// Set PC2 as output
	GPIOC->MODER |= (0b01 << 6);
 8001118:	4b09      	ldr	r3, [pc, #36]	@ (8001140 <ce_low+0x44>)
 800111a:	681b      	ldr	r3, [r3, #0]
 800111c:	4a08      	ldr	r2, [pc, #32]	@ (8001140 <ce_low+0x44>)
 800111e:	f043 0340 	orr.w	r3, r3, #64	@ 0x40
 8001122:	6013      	str	r3, [r2, #0]

	// Set to LOW
	GPIOC->ODR &= ~(1 << 3);
 8001124:	4b06      	ldr	r3, [pc, #24]	@ (8001140 <ce_low+0x44>)
 8001126:	695b      	ldr	r3, [r3, #20]
 8001128:	4a05      	ldr	r2, [pc, #20]	@ (8001140 <ce_low+0x44>)
 800112a:	f023 0308 	bic.w	r3, r3, #8
 800112e:	6153      	str	r3, [r2, #20]
}
 8001130:	bf00      	nop
 8001132:	46bd      	mov	sp, r7
 8001134:	f85d 7b04 	ldr.w	r7, [sp], #4
 8001138:	4770      	bx	lr
 800113a:	bf00      	nop
 800113c:	40021000 	.word	0x40021000
 8001140:	48000800 	.word	0x48000800

08001144 <nrf24_w_reg>:

void nrf24_w_reg(uint8_t reg, uint8_t *data, uint8_t size){
 8001144:	b580      	push	{r7, lr}
 8001146:	b084      	sub	sp, #16
 8001148:	af00      	add	r7, sp, #0
 800114a:	4603      	mov	r3, r0
 800114c:	6039      	str	r1, [r7, #0]
 800114e:	71fb      	strb	r3, [r7, #7]
 8001150:	4613      	mov	r3, r2
 8001152:	71bb      	strb	r3, [r7, #6]

	uint8_t cmd = W_REGISTER | reg;
 8001154:	79fb      	ldrb	r3, [r7, #7]
 8001156:	f043 0320 	orr.w	r3, r3, #32
 800115a:	73fb      	strb	r3, [r7, #15]

	csn_low();
 800115c:	f7ff ff86 	bl	800106c <csn_low>

	//HAL_SPI_Transmit(&hspiX, &cmd, 1, spi_w_timeout);
	//HAL_SPI_Transmit(&hspiX, data, size, spi_w_timeout);

	SPI2_TX_RX(cmd);            // send command byte
 8001160:	7bfb      	ldrb	r3, [r7, #15]
 8001162:	4618      	mov	r0, r3
 8001164:	f7ff fa76 	bl	8000654 <SPI2_TX_RX>
	SPI2_TX_Buffer(data, size); // send all data bytes
 8001168:	79bb      	ldrb	r3, [r7, #6]
 800116a:	4619      	mov	r1, r3
 800116c:	6838      	ldr	r0, [r7, #0]
 800116e:	f7ff fab3 	bl	80006d8 <SPI2_TX_Buffer>

	csn_high();
 8001172:	f7ff ff57 	bl	8001024 <csn_high>
}
 8001176:	bf00      	nop
 8001178:	3710      	adds	r7, #16
 800117a:	46bd      	mov	sp, r7
 800117c:	bd80      	pop	{r7, pc}

0800117e <nrf24_r_reg>:

uint8_t nrf24_r_reg(uint8_t reg, uint8_t size){
 800117e:	b580      	push	{r7, lr}
 8001180:	b084      	sub	sp, #16
 8001182:	af00      	add	r7, sp, #0
 8001184:	4603      	mov	r3, r0
 8001186:	460a      	mov	r2, r1
 8001188:	71fb      	strb	r3, [r7, #7]
 800118a:	4613      	mov	r3, r2
 800118c:	71bb      	strb	r3, [r7, #6]
	uint8_t cmd = R_REGISTER | reg;
 800118e:	79fb      	ldrb	r3, [r7, #7]
 8001190:	737b      	strb	r3, [r7, #13]
	uint8_t data;

	csn_low();
 8001192:	f7ff ff6b 	bl	800106c <csn_low>

	//HAL_SPI_Transmit(&hspiX, &cmd, 1, spi_w_timeout);
	//HAL_SPI_Receive(&hspiX, &data, size, spi_r_timeout);
	SPI2_TX_RX(cmd);            // send command byte
 8001196:	7b7b      	ldrb	r3, [r7, #13]
 8001198:	4618      	mov	r0, r3
 800119a:	f7ff fa5b 	bl	8000654 <SPI2_TX_RX>

    for(uint8_t i = 0; i < size; i++){
 800119e:	2300      	movs	r3, #0
 80011a0:	73bb      	strb	r3, [r7, #14]
 80011a2:	e007      	b.n	80011b4 <nrf24_r_reg+0x36>
    	// send dummy byte, receive register value
        data = SPI2_TX_RX(0xFF);
 80011a4:	20ff      	movs	r0, #255	@ 0xff
 80011a6:	f7ff fa55 	bl	8000654 <SPI2_TX_RX>
 80011aa:	4603      	mov	r3, r0
 80011ac:	73fb      	strb	r3, [r7, #15]
    for(uint8_t i = 0; i < size; i++){
 80011ae:	7bbb      	ldrb	r3, [r7, #14]
 80011b0:	3301      	adds	r3, #1
 80011b2:	73bb      	strb	r3, [r7, #14]
 80011b4:	7bba      	ldrb	r2, [r7, #14]
 80011b6:	79bb      	ldrb	r3, [r7, #6]
 80011b8:	429a      	cmp	r2, r3
 80011ba:	d3f3      	bcc.n	80011a4 <nrf24_r_reg+0x26>
    }

	csn_high();
 80011bc:	f7ff ff32 	bl	8001024 <csn_high>

	return data;
 80011c0:	7bfb      	ldrb	r3, [r7, #15]
}
 80011c2:	4618      	mov	r0, r3
 80011c4:	3710      	adds	r7, #16
 80011c6:	46bd      	mov	sp, r7
 80011c8:	bd80      	pop	{r7, pc}

080011ca <nrf24_w_spec_cmd>:

void nrf24_w_spec_cmd(uint8_t cmd){
 80011ca:	b580      	push	{r7, lr}
 80011cc:	b082      	sub	sp, #8
 80011ce:	af00      	add	r7, sp, #0
 80011d0:	4603      	mov	r3, r0
 80011d2:	71fb      	strb	r3, [r7, #7]
	//HAL_SPI_Transmit(&hspiX, &cmd, 1, spi_w_timeout);
	SPI2_TX_RX(cmd);
 80011d4:	79fb      	ldrb	r3, [r7, #7]
 80011d6:	4618      	mov	r0, r3
 80011d8:	f7ff fa3c 	bl	8000654 <SPI2_TX_RX>
}
 80011dc:	bf00      	nop
 80011de:	3708      	adds	r7, #8
 80011e0:	46bd      	mov	sp, r7
 80011e2:	bd80      	pop	{r7, pc}

080011e4 <nrf24_pwr_up>:
	for(uint8_t i = 0; i < size; i++){
	        data[i] = SPI2_TX_RX(0xFF);
	    }
}

void nrf24_pwr_up(void){
 80011e4:	b580      	push	{r7, lr}
 80011e6:	b082      	sub	sp, #8
 80011e8:	af00      	add	r7, sp, #0
	uint8_t data = 0;
 80011ea:	2300      	movs	r3, #0
 80011ec:	71fb      	strb	r3, [r7, #7]

	data = nrf24_r_reg(CONFIG, 1);
 80011ee:	2101      	movs	r1, #1
 80011f0:	2000      	movs	r0, #0
 80011f2:	f7ff ffc4 	bl	800117e <nrf24_r_reg>
 80011f6:	4603      	mov	r3, r0
 80011f8:	71fb      	strb	r3, [r7, #7]

	data |= (1 << PWR_UP);
 80011fa:	79fb      	ldrb	r3, [r7, #7]
 80011fc:	f043 0302 	orr.w	r3, r3, #2
 8001200:	b2db      	uxtb	r3, r3
 8001202:	71fb      	strb	r3, [r7, #7]

	nrf24_w_reg(CONFIG, &data, 1);
 8001204:	1dfb      	adds	r3, r7, #7
 8001206:	2201      	movs	r2, #1
 8001208:	4619      	mov	r1, r3
 800120a:	2000      	movs	r0, #0
 800120c:	f7ff ff9a 	bl	8001144 <nrf24_w_reg>
}
 8001210:	bf00      	nop
 8001212:	3708      	adds	r7, #8
 8001214:	46bd      	mov	sp, r7
 8001216:	bd80      	pop	{r7, pc}

08001218 <nrf24_tx_pwr>:
	data &= ~(1 << PWR_UP);

	nrf24_w_reg(CONFIG, &data, 1);
}

void nrf24_tx_pwr(uint8_t pwr){
 8001218:	b580      	push	{r7, lr}
 800121a:	b084      	sub	sp, #16
 800121c:	af00      	add	r7, sp, #0
 800121e:	4603      	mov	r3, r0
 8001220:	71fb      	strb	r3, [r7, #7]
	uint8_t data = 0;
 8001222:	2300      	movs	r3, #0
 8001224:	73fb      	strb	r3, [r7, #15]

	data = nrf24_r_reg(RF_SETUP, 1);
 8001226:	2101      	movs	r1, #1
 8001228:	2006      	movs	r0, #6
 800122a:	f7ff ffa8 	bl	800117e <nrf24_r_reg>
 800122e:	4603      	mov	r3, r0
 8001230:	73fb      	strb	r3, [r7, #15]

	data &= 184;
 8001232:	7bfb      	ldrb	r3, [r7, #15]
 8001234:	f023 0347 	bic.w	r3, r3, #71	@ 0x47
 8001238:	b2db      	uxtb	r3, r3
 800123a:	73fb      	strb	r3, [r7, #15]

	data |= (pwr << RF_PWR);
 800123c:	f997 3007 	ldrsb.w	r3, [r7, #7]
 8001240:	005b      	lsls	r3, r3, #1
 8001242:	b25a      	sxtb	r2, r3
 8001244:	7bfb      	ldrb	r3, [r7, #15]
 8001246:	b25b      	sxtb	r3, r3
 8001248:	4313      	orrs	r3, r2
 800124a:	b25b      	sxtb	r3, r3
 800124c:	b2db      	uxtb	r3, r3
 800124e:	73fb      	strb	r3, [r7, #15]

	nrf24_w_reg(RF_SETUP, &data, 1);
 8001250:	f107 030f 	add.w	r3, r7, #15
 8001254:	2201      	movs	r2, #1
 8001256:	4619      	mov	r1, r3
 8001258:	2006      	movs	r0, #6
 800125a:	f7ff ff73 	bl	8001144 <nrf24_w_reg>
}
 800125e:	bf00      	nop
 8001260:	3710      	adds	r7, #16
 8001262:	46bd      	mov	sp, r7
 8001264:	bd80      	pop	{r7, pc}

08001266 <nrf24_data_rate>:

void nrf24_data_rate(uint8_t bps){
 8001266:	b580      	push	{r7, lr}
 8001268:	b084      	sub	sp, #16
 800126a:	af00      	add	r7, sp, #0
 800126c:	4603      	mov	r3, r0
 800126e:	71fb      	strb	r3, [r7, #7]
	uint8_t data = 0;
 8001270:	2300      	movs	r3, #0
 8001272:	73fb      	strb	r3, [r7, #15]

	data = nrf24_r_reg(RF_SETUP, 1);
 8001274:	2101      	movs	r1, #1
 8001276:	2006      	movs	r0, #6
 8001278:	f7ff ff81 	bl	800117e <nrf24_r_reg>
 800127c:	4603      	mov	r3, r0
 800127e:	73fb      	strb	r3, [r7, #15]

	data &= ~(1 << RF_DR_LOW) & ~(1 << RF_DR_HIGH);
 8001280:	7bfb      	ldrb	r3, [r7, #15]
 8001282:	f023 0328 	bic.w	r3, r3, #40	@ 0x28
 8001286:	b2db      	uxtb	r3, r3
 8001288:	73fb      	strb	r3, [r7, #15]

	if(bps == _2mbps){
 800128a:	79fb      	ldrb	r3, [r7, #7]
 800128c:	2b01      	cmp	r3, #1
 800128e:	d105      	bne.n	800129c <nrf24_data_rate+0x36>
		data |= (1 << RF_DR_HIGH);
 8001290:	7bfb      	ldrb	r3, [r7, #15]
 8001292:	f043 0308 	orr.w	r3, r3, #8
 8001296:	b2db      	uxtb	r3, r3
 8001298:	73fb      	strb	r3, [r7, #15]
 800129a:	e007      	b.n	80012ac <nrf24_data_rate+0x46>
	}else if(bps == _250kbps){
 800129c:	79fb      	ldrb	r3, [r7, #7]
 800129e:	2b02      	cmp	r3, #2
 80012a0:	d104      	bne.n	80012ac <nrf24_data_rate+0x46>
		data |= (1 << RF_DR_LOW);
 80012a2:	7bfb      	ldrb	r3, [r7, #15]
 80012a4:	f043 0320 	orr.w	r3, r3, #32
 80012a8:	b2db      	uxtb	r3, r3
 80012aa:	73fb      	strb	r3, [r7, #15]
	}

	nrf24_w_reg(RF_SETUP, &data, 1);
 80012ac:	f107 030f 	add.w	r3, r7, #15
 80012b0:	2201      	movs	r2, #1
 80012b2:	4619      	mov	r1, r3
 80012b4:	2006      	movs	r0, #6
 80012b6:	f7ff ff45 	bl	8001144 <nrf24_w_reg>
}
 80012ba:	bf00      	nop
 80012bc:	3710      	adds	r7, #16
 80012be:	46bd      	mov	sp, r7
 80012c0:	bd80      	pop	{r7, pc}

080012c2 <nrf24_set_channel>:

void nrf24_set_channel(uint8_t ch){
 80012c2:	b580      	push	{r7, lr}
 80012c4:	b082      	sub	sp, #8
 80012c6:	af00      	add	r7, sp, #0
 80012c8:	4603      	mov	r3, r0
 80012ca:	71fb      	strb	r3, [r7, #7]
	nrf24_w_reg(RF_CH, &ch, 1);
 80012cc:	1dfb      	adds	r3, r7, #7
 80012ce:	2201      	movs	r2, #1
 80012d0:	4619      	mov	r1, r3
 80012d2:	2005      	movs	r0, #5
 80012d4:	f7ff ff36 	bl	8001144 <nrf24_w_reg>
}
 80012d8:	bf00      	nop
 80012da:	3708      	adds	r7, #8
 80012dc:	46bd      	mov	sp, r7
 80012de:	bd80      	pop	{r7, pc}

080012e0 <nrf24_open_tx_pipe>:

void nrf24_open_tx_pipe(uint8_t *addr){
 80012e0:	b580      	push	{r7, lr}
 80012e2:	b082      	sub	sp, #8
 80012e4:	af00      	add	r7, sp, #0
 80012e6:	6078      	str	r0, [r7, #4]
	nrf24_w_reg(TX_ADDR, addr, 5);
 80012e8:	2205      	movs	r2, #5
 80012ea:	6879      	ldr	r1, [r7, #4]
 80012ec:	2010      	movs	r0, #16
 80012ee:	f7ff ff29 	bl	8001144 <nrf24_w_reg>
}
 80012f2:	bf00      	nop
 80012f4:	3708      	adds	r7, #8
 80012f6:	46bd      	mov	sp, r7
 80012f8:	bd80      	pop	{r7, pc}
	...

080012fc <nrf24_pipe_pld_size>:

void nrf24_pipe_pld_size(uint8_t pipe, uint8_t size){
 80012fc:	b580      	push	{r7, lr}
 80012fe:	b082      	sub	sp, #8
 8001300:	af00      	add	r7, sp, #0
 8001302:	4603      	mov	r3, r0
 8001304:	460a      	mov	r2, r1
 8001306:	71fb      	strb	r3, [r7, #7]
 8001308:	4613      	mov	r3, r2
 800130a:	71bb      	strb	r3, [r7, #6]
	if(size > 32){
 800130c:	79bb      	ldrb	r3, [r7, #6]
 800130e:	2b20      	cmp	r3, #32
 8001310:	d901      	bls.n	8001316 <nrf24_pipe_pld_size+0x1a>
		size = 32;
 8001312:	2320      	movs	r3, #32
 8001314:	71bb      	strb	r3, [r7, #6]
	}

	switch(pipe){
 8001316:	79fb      	ldrb	r3, [r7, #7]
 8001318:	2b05      	cmp	r3, #5
 800131a:	d839      	bhi.n	8001390 <nrf24_pipe_pld_size+0x94>
 800131c:	a201      	add	r2, pc, #4	@ (adr r2, 8001324 <nrf24_pipe_pld_size+0x28>)
 800131e:	f852 f023 	ldr.w	pc, [r2, r3, lsl #2]
 8001322:	bf00      	nop
 8001324:	0800133d 	.word	0x0800133d
 8001328:	0800134b 	.word	0x0800134b
 800132c:	08001359 	.word	0x08001359
 8001330:	08001367 	.word	0x08001367
 8001334:	08001375 	.word	0x08001375
 8001338:	08001383 	.word	0x08001383
	case 0:
		nrf24_w_reg(RX_PW_P0, &size, 1);
 800133c:	1dbb      	adds	r3, r7, #6
 800133e:	2201      	movs	r2, #1
 8001340:	4619      	mov	r1, r3
 8001342:	2011      	movs	r0, #17
 8001344:	f7ff fefe 	bl	8001144 <nrf24_w_reg>

		break;
 8001348:	e022      	b.n	8001390 <nrf24_pipe_pld_size+0x94>
	case 1:
		nrf24_w_reg(RX_PW_P1, &size, 1);
 800134a:	1dbb      	adds	r3, r7, #6
 800134c:	2201      	movs	r2, #1
 800134e:	4619      	mov	r1, r3
 8001350:	2012      	movs	r0, #18
 8001352:	f7ff fef7 	bl	8001144 <nrf24_w_reg>

		break;
 8001356:	e01b      	b.n	8001390 <nrf24_pipe_pld_size+0x94>
	case 2:
		nrf24_w_reg(RX_PW_P2, &size, 1);
 8001358:	1dbb      	adds	r3, r7, #6
 800135a:	2201      	movs	r2, #1
 800135c:	4619      	mov	r1, r3
 800135e:	2013      	movs	r0, #19
 8001360:	f7ff fef0 	bl	8001144 <nrf24_w_reg>

		break;
 8001364:	e014      	b.n	8001390 <nrf24_pipe_pld_size+0x94>
	case 3:
		nrf24_w_reg(RX_PW_P3, &size, 1);
 8001366:	1dbb      	adds	r3, r7, #6
 8001368:	2201      	movs	r2, #1
 800136a:	4619      	mov	r1, r3
 800136c:	2014      	movs	r0, #20
 800136e:	f7ff fee9 	bl	8001144 <nrf24_w_reg>

		break;
 8001372:	e00d      	b.n	8001390 <nrf24_pipe_pld_size+0x94>
	case 4:
		nrf24_w_reg(RX_PW_P4, &size, 1);
 8001374:	1dbb      	adds	r3, r7, #6
 8001376:	2201      	movs	r2, #1
 8001378:	4619      	mov	r1, r3
 800137a:	2015      	movs	r0, #21
 800137c:	f7ff fee2 	bl	8001144 <nrf24_w_reg>

		break;
 8001380:	e006      	b.n	8001390 <nrf24_pipe_pld_size+0x94>
	case 5:
		nrf24_w_reg(RX_PW_P5, &size, 1);
 8001382:	1dbb      	adds	r3, r7, #6
 8001384:	2201      	movs	r2, #1
 8001386:	4619      	mov	r1, r3
 8001388:	2016      	movs	r0, #22
 800138a:	f7ff fedb 	bl	8001144 <nrf24_w_reg>

		break;
 800138e:	bf00      	nop
	}
}
 8001390:	bf00      	nop
 8001392:	3708      	adds	r7, #8
 8001394:	46bd      	mov	sp, r7
 8001396:	bd80      	pop	{r7, pc}

08001398 <nrf24_open_rx_pipe>:

void nrf24_open_rx_pipe(uint8_t pipe, uint8_t *addr){
 8001398:	b580      	push	{r7, lr}
 800139a:	b084      	sub	sp, #16
 800139c:	af00      	add	r7, sp, #0
 800139e:	4603      	mov	r3, r0
 80013a0:	6039      	str	r1, [r7, #0]
 80013a2:	71fb      	strb	r3, [r7, #7]

	uint8_t data = 0;
 80013a4:	2300      	movs	r3, #0
 80013a6:	73fb      	strb	r3, [r7, #15]

	data = nrf24_r_reg(EN_RXADDR, 1);
 80013a8:	2101      	movs	r1, #1
 80013aa:	2002      	movs	r0, #2
 80013ac:	f7ff fee7 	bl	800117e <nrf24_r_reg>
 80013b0:	4603      	mov	r3, r0
 80013b2:	73fb      	strb	r3, [r7, #15]

	switch(pipe){
 80013b4:	79fb      	ldrb	r3, [r7, #7]
 80013b6:	2b05      	cmp	r3, #5
 80013b8:	d850      	bhi.n	800145c <nrf24_open_rx_pipe+0xc4>
 80013ba:	a201      	add	r2, pc, #4	@ (adr r2, 80013c0 <nrf24_open_rx_pipe+0x28>)
 80013bc:	f852 f023 	ldr.w	pc, [r2, r3, lsl #2]
 80013c0:	080013d9 	.word	0x080013d9
 80013c4:	080013ef 	.word	0x080013ef
 80013c8:	08001405 	.word	0x08001405
 80013cc:	0800141b 	.word	0x0800141b
 80013d0:	08001431 	.word	0x08001431
 80013d4:	08001447 	.word	0x08001447
	case 0:
		nrf24_w_reg(RX_ADDR_P0, addr, 5);
 80013d8:	2205      	movs	r2, #5
 80013da:	6839      	ldr	r1, [r7, #0]
 80013dc:	200a      	movs	r0, #10
 80013de:	f7ff feb1 	bl	8001144 <nrf24_w_reg>

		data |= (1 << ERX_P0);
 80013e2:	7bfb      	ldrb	r3, [r7, #15]
 80013e4:	f043 0301 	orr.w	r3, r3, #1
 80013e8:	b2db      	uxtb	r3, r3
 80013ea:	73fb      	strb	r3, [r7, #15]
		break;
 80013ec:	e036      	b.n	800145c <nrf24_open_rx_pipe+0xc4>
	case 1:
		nrf24_w_reg(RX_ADDR_P1, addr, 5);
 80013ee:	2205      	movs	r2, #5
 80013f0:	6839      	ldr	r1, [r7, #0]
 80013f2:	200b      	movs	r0, #11
 80013f4:	f7ff fea6 	bl	8001144 <nrf24_w_reg>

		data |= (1 << ERX_P1);
 80013f8:	7bfb      	ldrb	r3, [r7, #15]
 80013fa:	f043 0302 	orr.w	r3, r3, #2
 80013fe:	b2db      	uxtb	r3, r3
 8001400:	73fb      	strb	r3, [r7, #15]
		break;
 8001402:	e02b      	b.n	800145c <nrf24_open_rx_pipe+0xc4>
	case 2:
		nrf24_w_reg(RX_ADDR_P2, addr, 1);
 8001404:	2201      	movs	r2, #1
 8001406:	6839      	ldr	r1, [r7, #0]
 8001408:	200c      	movs	r0, #12
 800140a:	f7ff fe9b 	bl	8001144 <nrf24_w_reg>

		data |= (1 << ERX_P2);
 800140e:	7bfb      	ldrb	r3, [r7, #15]
 8001410:	f043 0304 	orr.w	r3, r3, #4
 8001414:	b2db      	uxtb	r3, r3
 8001416:	73fb      	strb	r3, [r7, #15]
		break;
 8001418:	e020      	b.n	800145c <nrf24_open_rx_pipe+0xc4>
	case 3:
		nrf24_w_reg(RX_ADDR_P3, addr, 1);
 800141a:	2201      	movs	r2, #1
 800141c:	6839      	ldr	r1, [r7, #0]
 800141e:	200d      	movs	r0, #13
 8001420:	f7ff fe90 	bl	8001144 <nrf24_w_reg>

		data |= (1 << ERX_P3);
 8001424:	7bfb      	ldrb	r3, [r7, #15]
 8001426:	f043 0308 	orr.w	r3, r3, #8
 800142a:	b2db      	uxtb	r3, r3
 800142c:	73fb      	strb	r3, [r7, #15]
		break;
 800142e:	e015      	b.n	800145c <nrf24_open_rx_pipe+0xc4>
	case 4:
		nrf24_w_reg(RX_ADDR_P4, addr, 1);
 8001430:	2201      	movs	r2, #1
 8001432:	6839      	ldr	r1, [r7, #0]
 8001434:	200e      	movs	r0, #14
 8001436:	f7ff fe85 	bl	8001144 <nrf24_w_reg>

		data |= (1 << ERX_P4);
 800143a:	7bfb      	ldrb	r3, [r7, #15]
 800143c:	f043 0310 	orr.w	r3, r3, #16
 8001440:	b2db      	uxtb	r3, r3
 8001442:	73fb      	strb	r3, [r7, #15]
		break;
 8001444:	e00a      	b.n	800145c <nrf24_open_rx_pipe+0xc4>
	case 5:
		nrf24_w_reg(RX_ADDR_P5, addr, 1);
 8001446:	2201      	movs	r2, #1
 8001448:	6839      	ldr	r1, [r7, #0]
 800144a:	200f      	movs	r0, #15
 800144c:	f7ff fe7a 	bl	8001144 <nrf24_w_reg>

		data |= (1 << ERX_P5);
 8001450:	7bfb      	ldrb	r3, [r7, #15]
 8001452:	f043 0320 	orr.w	r3, r3, #32
 8001456:	b2db      	uxtb	r3, r3
 8001458:	73fb      	strb	r3, [r7, #15]
		break;
 800145a:	bf00      	nop
	}

	nrf24_w_reg(EN_RXADDR, &data, 1);
 800145c:	f107 030f 	add.w	r3, r7, #15
 8001460:	2201      	movs	r2, #1
 8001462:	4619      	mov	r1, r3
 8001464:	2002      	movs	r0, #2
 8001466:	f7ff fe6d 	bl	8001144 <nrf24_w_reg>
}
 800146a:	bf00      	nop
 800146c:	3710      	adds	r7, #16
 800146e:	46bd      	mov	sp, r7
 8001470:	bd80      	pop	{r7, pc}
 8001472:	bf00      	nop

08001474 <nrf24_flush_tx>:
void nrf24_set_addr_width(uint8_t bytes){
	bytes -= 2;
	nrf24_w_reg(SETUP_AW, &bytes, 1);
}

void nrf24_flush_tx(void){
 8001474:	b580      	push	{r7, lr}
 8001476:	af00      	add	r7, sp, #0
	csn_low();
 8001478:	f7ff fdf8 	bl	800106c <csn_low>
	nrf24_w_spec_cmd(FLUSH_TX);
 800147c:	20e1      	movs	r0, #225	@ 0xe1
 800147e:	f7ff fea4 	bl	80011ca <nrf24_w_spec_cmd>
	csn_high();
 8001482:	f7ff fdcf 	bl	8001024 <csn_high>
}
 8001486:	bf00      	nop
 8001488:	bd80      	pop	{r7, pc}

0800148a <nrf24_flush_rx>:

void nrf24_flush_rx(void){
 800148a:	b580      	push	{r7, lr}
 800148c:	af00      	add	r7, sp, #0
	csn_low();
 800148e:	f7ff fded 	bl	800106c <csn_low>
	nrf24_w_spec_cmd(FLUSH_RX);
 8001492:	20e2      	movs	r0, #226	@ 0xe2
 8001494:	f7ff fe99 	bl	80011ca <nrf24_w_spec_cmd>
	csn_high();
 8001498:	f7ff fdc4 	bl	8001024 <csn_high>
}
 800149c:	bf00      	nop
 800149e:	bd80      	pop	{r7, pc}

080014a0 <nrf24_r_status>:

uint8_t nrf24_r_status(void){
 80014a0:	b580      	push	{r7, lr}
 80014a2:	b082      	sub	sp, #8
 80014a4:	af00      	add	r7, sp, #0
	uint8_t data = 0;
 80014a6:	2300      	movs	r3, #0
 80014a8:	71fb      	strb	r3, [r7, #7]
	uint8_t cmd = NOP_CMD;
 80014aa:	23ff      	movs	r3, #255	@ 0xff
 80014ac:	71bb      	strb	r3, [r7, #6]

	csn_low();
 80014ae:	f7ff fddd 	bl	800106c <csn_low>

	//HAL_SPI_TransmitReceive(&hspiX, &cmd, &data, 1, spi_rw_timeout);  // <===
	data = SPI2_TX_RX(cmd);
 80014b2:	79bb      	ldrb	r3, [r7, #6]
 80014b4:	4618      	mov	r0, r3
 80014b6:	f7ff f8cd 	bl	8000654 <SPI2_TX_RX>
 80014ba:	4603      	mov	r3, r0
 80014bc:	71fb      	strb	r3, [r7, #7]

	csn_high();
 80014be:	f7ff fdb1 	bl	8001024 <csn_high>

	return data;
 80014c2:	79fb      	ldrb	r3, [r7, #7]
}
 80014c4:	4618      	mov	r0, r3
 80014c6:	3708      	adds	r7, #8
 80014c8:	46bd      	mov	sp, r7
 80014ca:	bd80      	pop	{r7, pc}

080014cc <nrf24_clear_rx_dr>:

void nrf24_clear_rx_dr(void){
 80014cc:	b580      	push	{r7, lr}
 80014ce:	b082      	sub	sp, #8
 80014d0:	af00      	add	r7, sp, #0
	uint8_t data = 0;
 80014d2:	2300      	movs	r3, #0
 80014d4:	71fb      	strb	r3, [r7, #7]

	data = nrf24_r_status();
 80014d6:	f7ff ffe3 	bl	80014a0 <nrf24_r_status>
 80014da:	4603      	mov	r3, r0
 80014dc:	71fb      	strb	r3, [r7, #7]

	data |= (1 << RX_DR);
 80014de:	79fb      	ldrb	r3, [r7, #7]
 80014e0:	f043 0340 	orr.w	r3, r3, #64	@ 0x40
 80014e4:	b2db      	uxtb	r3, r3
 80014e6:	71fb      	strb	r3, [r7, #7]

	nrf24_w_reg(STATUS, &data, 1);
 80014e8:	1dfb      	adds	r3, r7, #7
 80014ea:	2201      	movs	r2, #1
 80014ec:	4619      	mov	r1, r3
 80014ee:	2007      	movs	r0, #7
 80014f0:	f7ff fe28 	bl	8001144 <nrf24_w_reg>
}
 80014f4:	bf00      	nop
 80014f6:	3708      	adds	r7, #8
 80014f8:	46bd      	mov	sp, r7
 80014fa:	bd80      	pop	{r7, pc}

080014fc <nrf24_clear_tx_ds>:

void nrf24_clear_tx_ds(void){
 80014fc:	b580      	push	{r7, lr}
 80014fe:	b082      	sub	sp, #8
 8001500:	af00      	add	r7, sp, #0
	uint8_t data = 0;
 8001502:	2300      	movs	r3, #0
 8001504:	71fb      	strb	r3, [r7, #7]

	data = nrf24_r_status();
 8001506:	f7ff ffcb 	bl	80014a0 <nrf24_r_status>
 800150a:	4603      	mov	r3, r0
 800150c:	71fb      	strb	r3, [r7, #7]

	data |= (1 << TX_DS);
 800150e:	79fb      	ldrb	r3, [r7, #7]
 8001510:	f043 0320 	orr.w	r3, r3, #32
 8001514:	b2db      	uxtb	r3, r3
 8001516:	71fb      	strb	r3, [r7, #7]

    nrf24_w_reg(STATUS, &data, 1);
 8001518:	1dfb      	adds	r3, r7, #7
 800151a:	2201      	movs	r2, #1
 800151c:	4619      	mov	r1, r3
 800151e:	2007      	movs	r0, #7
 8001520:	f7ff fe10 	bl	8001144 <nrf24_w_reg>
}
 8001524:	bf00      	nop
 8001526:	3708      	adds	r7, #8
 8001528:	46bd      	mov	sp, r7
 800152a:	bd80      	pop	{r7, pc}

0800152c <nrf24_clear_max_rt>:

void nrf24_clear_max_rt(void){
 800152c:	b580      	push	{r7, lr}
 800152e:	b082      	sub	sp, #8
 8001530:	af00      	add	r7, sp, #0
	uint8_t data = 0;
 8001532:	2300      	movs	r3, #0
 8001534:	71fb      	strb	r3, [r7, #7]

	data = nrf24_r_status();
 8001536:	f7ff ffb3 	bl	80014a0 <nrf24_r_status>
 800153a:	4603      	mov	r3, r0
 800153c:	71fb      	strb	r3, [r7, #7]

	data |= (1 << MAX_RT);
 800153e:	79fb      	ldrb	r3, [r7, #7]
 8001540:	f043 0310 	orr.w	r3, r3, #16
 8001544:	b2db      	uxtb	r3, r3
 8001546:	71fb      	strb	r3, [r7, #7]

    nrf24_w_reg(STATUS, &data, 1);
 8001548:	1dfb      	adds	r3, r7, #7
 800154a:	2201      	movs	r2, #1
 800154c:	4619      	mov	r1, r3
 800154e:	2007      	movs	r0, #7
 8001550:	f7ff fdf8 	bl	8001144 <nrf24_w_reg>
}
 8001554:	bf00      	nop
 8001556:	3708      	adds	r7, #8
 8001558:	46bd      	mov	sp, r7
 800155a:	bd80      	pop	{r7, pc}

0800155c <nrf24_stop_listen>:
	nrf24_w_reg(CONFIG, &data, 1);

	ce_high();
}

void nrf24_stop_listen(void){
 800155c:	b580      	push	{r7, lr}
 800155e:	b082      	sub	sp, #8
 8001560:	af00      	add	r7, sp, #0
	uint8_t data = 0;
 8001562:	2300      	movs	r3, #0
 8001564:	71fb      	strb	r3, [r7, #7]

	data = nrf24_r_reg(CONFIG, 1);
 8001566:	2101      	movs	r1, #1
 8001568:	2000      	movs	r0, #0
 800156a:	f7ff fe08 	bl	800117e <nrf24_r_reg>
 800156e:	4603      	mov	r3, r0
 8001570:	71fb      	strb	r3, [r7, #7]

	data &= ~(1 << PRIM_RX);
 8001572:	79fb      	ldrb	r3, [r7, #7]
 8001574:	f023 0301 	bic.w	r3, r3, #1
 8001578:	b2db      	uxtb	r3, r3
 800157a:	71fb      	strb	r3, [r7, #7]

	nrf24_w_reg(CONFIG, &data, 1);
 800157c:	1dfb      	adds	r3, r7, #7
 800157e:	2201      	movs	r2, #1
 8001580:	4619      	mov	r1, r3
 8001582:	2000      	movs	r0, #0
 8001584:	f7ff fdde 	bl	8001144 <nrf24_w_reg>
}
 8001588:	bf00      	nop
 800158a:	3708      	adds	r7, #8
 800158c:	46bd      	mov	sp, r7
 800158e:	bd80      	pop	{r7, pc}

08001590 <nrf24_transmit>:

	return out;
}

//#1 - transmits data well with 35 mS delay
uint8_t nrf24_transmit(uint8_t *data, uint8_t size){
 8001590:	b580      	push	{r7, lr}
 8001592:	b084      	sub	sp, #16
 8001594:	af00      	add	r7, sp, #0
 8001596:	6078      	str	r0, [r7, #4]
 8001598:	460b      	mov	r3, r1
 800159a:	70fb      	strb	r3, [r7, #3]

	ce_low();
 800159c:	f7ff fdae 	bl	80010fc <ce_low>

	uint8_t cmd = W_TX_PAYLOAD;
 80015a0:	23a0      	movs	r3, #160	@ 0xa0
 80015a2:	73fb      	strb	r3, [r7, #15]

	csn_low();
 80015a4:	f7ff fd62 	bl	800106c <csn_low>
	//HAL_SPI_Transmit(&hspiX, &cmd, 1, spi_w_timeout);        // <===
	//HAL_SPI_Transmit(&hspiX, data, size, spi_w_timeout);

	SPI2_TX_RX(cmd);            // send command byte
 80015a8:	7bfb      	ldrb	r3, [r7, #15]
 80015aa:	4618      	mov	r0, r3
 80015ac:	f7ff f852 	bl	8000654 <SPI2_TX_RX>
	SPI2_TX_Buffer(data, size); // send all data bytes
 80015b0:	78fb      	ldrb	r3, [r7, #3]
 80015b2:	4619      	mov	r1, r3
 80015b4:	6878      	ldr	r0, [r7, #4]
 80015b6:	f7ff f88f 	bl	80006d8 <SPI2_TX_Buffer>

	csn_high();
 80015ba:	f7ff fd33 	bl	8001024 <csn_high>

	ce_high();
 80015be:	f7ff fd79 	bl	80010b4 <ce_high>
	Delay_uS(20);
 80015c2:	2014      	movs	r0, #20
 80015c4:	f000 f988 	bl	80018d8 <Delay_uS>
	ce_low();
 80015c8:	f7ff fd98 	bl	80010fc <ce_low>

	if(nrf24_r_status() & (1 << MAX_RT)){
 80015cc:	f7ff ff68 	bl	80014a0 <nrf24_r_status>
 80015d0:	4603      	mov	r3, r0
 80015d2:	f003 0310 	and.w	r3, r3, #16
 80015d6:	2b00      	cmp	r3, #0
 80015d8:	d005      	beq.n	80015e6 <nrf24_transmit+0x56>
		nrf24_clear_max_rt();
 80015da:	f7ff ffa7 	bl	800152c <nrf24_clear_max_rt>
		nrf24_flush_tx();
 80015de:	f7ff ff49 	bl	8001474 <nrf24_flush_tx>
		return 1;
 80015e2:	2301      	movs	r3, #1
 80015e4:	e000      	b.n	80015e8 <nrf24_transmit+0x58>
	}

	return 0;
 80015e6:	2300      	movs	r3, #0
}
 80015e8:	4618      	mov	r0, r3
 80015ea:	3710      	adds	r7, #16
 80015ec:	46bd      	mov	sp, r7
 80015ee:	bd80      	pop	{r7, pc}

080015f0 <nrf24_init>:
	}

	ce_high();
}

void nrf24_init(void){
 80015f0:	b580      	push	{r7, lr}
 80015f2:	af00      	add	r7, sp, #0
	/*
	if(HAL_TIM_Base_Start(&htimX) != HAL_OK){
		Error_Handler();
	}
	 */
	nrf24_pwr_up();
 80015f4:	f7ff fdf6 	bl	80011e4 <nrf24_pwr_up>

	nrf24_flush_tx();
 80015f8:	f7ff ff3c 	bl	8001474 <nrf24_flush_tx>
	nrf24_flush_rx();
 80015fc:	f7ff ff45 	bl	800148a <nrf24_flush_rx>

	nrf24_clear_rx_dr();
 8001600:	f7ff ff64 	bl	80014cc <nrf24_clear_rx_dr>
	nrf24_clear_tx_ds();
 8001604:	f7ff ff7a 	bl	80014fc <nrf24_clear_tx_ds>
	nrf24_clear_max_rt();
 8001608:	f7ff ff90 	bl	800152c <nrf24_clear_max_rt>
}
 800160c:	bf00      	nop
 800160e:	bd80      	pop	{r7, pc}

08001610 <__NVIC_EnableIRQ>:
{
 8001610:	b480      	push	{r7}
 8001612:	b083      	sub	sp, #12
 8001614:	af00      	add	r7, sp, #0
 8001616:	4603      	mov	r3, r0
 8001618:	71fb      	strb	r3, [r7, #7]
  if ((int32_t)(IRQn) >= 0)
 800161a:	f997 3007 	ldrsb.w	r3, [r7, #7]
 800161e:	2b00      	cmp	r3, #0
 8001620:	db0b      	blt.n	800163a <__NVIC_EnableIRQ+0x2a>
    NVIC->ISER[(((uint32_t)IRQn) >> 5UL)] = (uint32_t)(1UL << (((uint32_t)IRQn) & 0x1FUL));
 8001622:	79fb      	ldrb	r3, [r7, #7]
 8001624:	f003 021f 	and.w	r2, r3, #31
 8001628:	4907      	ldr	r1, [pc, #28]	@ (8001648 <__NVIC_EnableIRQ+0x38>)
 800162a:	f997 3007 	ldrsb.w	r3, [r7, #7]
 800162e:	095b      	lsrs	r3, r3, #5
 8001630:	2001      	movs	r0, #1
 8001632:	fa00 f202 	lsl.w	r2, r0, r2
 8001636:	f841 2023 	str.w	r2, [r1, r3, lsl #2]
}
 800163a:	bf00      	nop
 800163c:	370c      	adds	r7, #12
 800163e:	46bd      	mov	sp, r7
 8001640:	f85d 7b04 	ldr.w	r7, [sp], #4
 8001644:	4770      	bx	lr
 8001646:	bf00      	nop
 8001648:	e000e100 	.word	0xe000e100

0800164c <__NVIC_SetPriority>:
  \param [in]      IRQn  Interrupt number.
  \param [in]  priority  Priority to set.
  \note    The priority cannot be set for every processor exception.
 */
__STATIC_INLINE void __NVIC_SetPriority(IRQn_Type IRQn, uint32_t priority)
{
 800164c:	b480      	push	{r7}
 800164e:	b083      	sub	sp, #12
 8001650:	af00      	add	r7, sp, #0
 8001652:	4603      	mov	r3, r0
 8001654:	6039      	str	r1, [r7, #0]
 8001656:	71fb      	strb	r3, [r7, #7]
  if ((int32_t)(IRQn) >= 0)
 8001658:	f997 3007 	ldrsb.w	r3, [r7, #7]
 800165c:	2b00      	cmp	r3, #0
 800165e:	db0a      	blt.n	8001676 <__NVIC_SetPriority+0x2a>
  {
    NVIC->IP[((uint32_t)IRQn)]               = (uint8_t)((priority << (8U - __NVIC_PRIO_BITS)) & (uint32_t)0xFFUL);
 8001660:	683b      	ldr	r3, [r7, #0]
 8001662:	b2da      	uxtb	r2, r3
 8001664:	490c      	ldr	r1, [pc, #48]	@ (8001698 <__NVIC_SetPriority+0x4c>)
 8001666:	f997 3007 	ldrsb.w	r3, [r7, #7]
 800166a:	0112      	lsls	r2, r2, #4
 800166c:	b2d2      	uxtb	r2, r2
 800166e:	440b      	add	r3, r1
 8001670:	f883 2300 	strb.w	r2, [r3, #768]	@ 0x300
  }
  else
  {
    SCB->SHP[(((uint32_t)IRQn) & 0xFUL)-4UL] = (uint8_t)((priority << (8U - __NVIC_PRIO_BITS)) & (uint32_t)0xFFUL);
  }
}
 8001674:	e00a      	b.n	800168c <__NVIC_SetPriority+0x40>
    SCB->SHP[(((uint32_t)IRQn) & 0xFUL)-4UL] = (uint8_t)((priority << (8U - __NVIC_PRIO_BITS)) & (uint32_t)0xFFUL);
 8001676:	683b      	ldr	r3, [r7, #0]
 8001678:	b2da      	uxtb	r2, r3
 800167a:	4908      	ldr	r1, [pc, #32]	@ (800169c <__NVIC_SetPriority+0x50>)
 800167c:	79fb      	ldrb	r3, [r7, #7]
 800167e:	f003 030f 	and.w	r3, r3, #15
 8001682:	3b04      	subs	r3, #4
 8001684:	0112      	lsls	r2, r2, #4
 8001686:	b2d2      	uxtb	r2, r2
 8001688:	440b      	add	r3, r1
 800168a:	761a      	strb	r2, [r3, #24]
}
 800168c:	bf00      	nop
 800168e:	370c      	adds	r7, #12
 8001690:	46bd      	mov	sp, r7
 8001692:	f85d 7b04 	ldr.w	r7, [sp], #4
 8001696:	4770      	bx	lr
 8001698:	e000e100 	.word	0xe000e100
 800169c:	e000ed00 	.word	0xe000ed00

080016a0 <ADC_Poten_PA7_Init>:
#define ADC_Bits            4096

volatile uint16_t ADC_Value_PA7 = 0;

// Initializes GPIOA, Timer, and Interrupt peripherals for PA7
void ADC_Poten_PA7_Init(void){
 80016a0:	b580      	push	{r7, lr}
 80016a2:	b082      	sub	sp, #8
 80016a4:	af00      	add	r7, sp, #0
	// Step 1: Init GPIOA
	// Enable GPIOA Clk access
	RCC->AHB2ENR |= RCC_AHB2ENR_GPIOAEN;
 80016a6:	4b4d      	ldr	r3, [pc, #308]	@ (80017dc <ADC_Poten_PA7_Init+0x13c>)
 80016a8:	6cdb      	ldr	r3, [r3, #76]	@ 0x4c
 80016aa:	4a4c      	ldr	r2, [pc, #304]	@ (80017dc <ADC_Poten_PA7_Init+0x13c>)
 80016ac:	f043 0301 	orr.w	r3, r3, #1
 80016b0:	64d3      	str	r3, [r2, #76]	@ 0x4c
	// Set PA7 to analog mode
	GPIOA->MODER |= (0b11 << 14);
 80016b2:	f04f 4390 	mov.w	r3, #1207959552	@ 0x48000000
 80016b6:	681b      	ldr	r3, [r3, #0]
 80016b8:	f04f 4290 	mov.w	r2, #1207959552	@ 0x48000000
 80016bc:	f443 4340 	orr.w	r3, r3, #49152	@ 0xc000
 80016c0:	6013      	str	r3, [r2, #0]


	// Step 2: Init Timer (TIM3_CH2 -> AF2)
    // Enable TIM3 clock
    RCC->APB1ENR1 |= RCC_APB1ENR1_TIM3EN;
 80016c2:	4b46      	ldr	r3, [pc, #280]	@ (80017dc <ADC_Poten_PA7_Init+0x13c>)
 80016c4:	6d9b      	ldr	r3, [r3, #88]	@ 0x58
 80016c6:	4a45      	ldr	r2, [pc, #276]	@ (80017dc <ADC_Poten_PA7_Init+0x13c>)
 80016c8:	f043 0302 	orr.w	r3, r3, #2
 80016cc:	6593      	str	r3, [r2, #88]	@ 0x58

    // Set prescaler and auto-reload for 10ms period (For 16 MHz Clk)
    TIM3->PSC = 16000 - 1;   // 16 MHz / 16000 = 1 kHz
 80016ce:	4b44      	ldr	r3, [pc, #272]	@ (80017e0 <ADC_Poten_PA7_Init+0x140>)
 80016d0:	f643 627f 	movw	r2, #15999	@ 0x3e7f
 80016d4:	629a      	str	r2, [r3, #40]	@ 0x28
    TIM3->ARR = 1000 - 1;    // 1 kHz / 1000 = 1 Hz (1s)
 80016d6:	4b42      	ldr	r3, [pc, #264]	@ (80017e0 <ADC_Poten_PA7_Init+0x140>)
 80016d8:	f240 32e7 	movw	r2, #999	@ 0x3e7
 80016dc:	62da      	str	r2, [r3, #44]	@ 0x2c

    // Set TIM3 to generate TRGO on update event
    TIM3->CR2 |= (0b010 << 4);
 80016de:	4b40      	ldr	r3, [pc, #256]	@ (80017e0 <ADC_Poten_PA7_Init+0x140>)
 80016e0:	685b      	ldr	r3, [r3, #4]
 80016e2:	4a3f      	ldr	r2, [pc, #252]	@ (80017e0 <ADC_Poten_PA7_Init+0x140>)
 80016e4:	f043 0320 	orr.w	r3, r3, #32
 80016e8:	6053      	str	r3, [r2, #4]

    // Enable timer
    TIM3->CR1 |= TIM_CR1_CEN;
 80016ea:	4b3d      	ldr	r3, [pc, #244]	@ (80017e0 <ADC_Poten_PA7_Init+0x140>)
 80016ec:	681b      	ldr	r3, [r3, #0]
 80016ee:	4a3c      	ldr	r2, [pc, #240]	@ (80017e0 <ADC_Poten_PA7_Init+0x140>)
 80016f0:	f043 0301 	orr.w	r3, r3, #1
 80016f4:	6013      	str	r3, [r2, #0]


    // Step 3: Init Interrupt (ADC2_IN4) -> IN4 = CH4
	// enable ADC2 Clk and ADC Clk source
	RCC->AHB2ENR |= RCC_AHB2ENR_ADC12EN;
 80016f6:	4b39      	ldr	r3, [pc, #228]	@ (80017dc <ADC_Poten_PA7_Init+0x13c>)
 80016f8:	6cdb      	ldr	r3, [r3, #76]	@ 0x4c
 80016fa:	4a38      	ldr	r2, [pc, #224]	@ (80017dc <ADC_Poten_PA7_Init+0x13c>)
 80016fc:	f443 5300 	orr.w	r3, r3, #8192	@ 0x2000
 8001700:	64d3      	str	r3, [r2, #76]	@ 0x4c
	RCC->CCIPR |= (0b10 << 28);
 8001702:	4b36      	ldr	r3, [pc, #216]	@ (80017dc <ADC_Poten_PA7_Init+0x13c>)
 8001704:	f8d3 3088 	ldr.w	r3, [r3, #136]	@ 0x88
 8001708:	4a34      	ldr	r2, [pc, #208]	@ (80017dc <ADC_Poten_PA7_Init+0x13c>)
 800170a:	f043 5300 	orr.w	r3, r3, #536870912	@ 0x20000000
 800170e:	f8c2 3088 	str.w	r3, [r2, #136]	@ 0x88

	// ADC startup sequence
	// Enable ADC voltage regulator (RM0440: 21.4.6)
	ADC2->CR &= ~(ADC_CR_ADEN|ADC_CR_DEEPPWD);     // Disable ADC and DEEPPWD
 8001712:	4b34      	ldr	r3, [pc, #208]	@ (80017e4 <ADC_Poten_PA7_Init+0x144>)
 8001714:	689b      	ldr	r3, [r3, #8]
 8001716:	4a33      	ldr	r2, [pc, #204]	@ (80017e4 <ADC_Poten_PA7_Init+0x144>)
 8001718:	f023 5300 	bic.w	r3, r3, #536870912	@ 0x20000000
 800171c:	f023 0301 	bic.w	r3, r3, #1
 8001720:	6093      	str	r3, [r2, #8]
	ADC2->CR |= ADC_CR_ADVREGEN;                   // Enable voltage regulator
 8001722:	4b30      	ldr	r3, [pc, #192]	@ (80017e4 <ADC_Poten_PA7_Init+0x144>)
 8001724:	689b      	ldr	r3, [r3, #8]
 8001726:	4a2f      	ldr	r2, [pc, #188]	@ (80017e4 <ADC_Poten_PA7_Init+0x144>)
 8001728:	f043 5380 	orr.w	r3, r3, #268435456	@ 0x10000000
 800172c:	6093      	str	r3, [r2, #8]
	for (volatile uint32_t i = 0; i < 1000; i++);  // Wait ~20 µs for regulator
 800172e:	2300      	movs	r3, #0
 8001730:	607b      	str	r3, [r7, #4]
 8001732:	e002      	b.n	800173a <ADC_Poten_PA7_Init+0x9a>
 8001734:	687b      	ldr	r3, [r7, #4]
 8001736:	3301      	adds	r3, #1
 8001738:	607b      	str	r3, [r7, #4]
 800173a:	687b      	ldr	r3, [r7, #4]
 800173c:	f5b3 7f7a 	cmp.w	r3, #1000	@ 0x3e8
 8001740:	d3f8      	bcc.n	8001734 <ADC_Poten_PA7_Init+0x94>

	// Calibrate ADC
	ADC2->CR |= ADC_CR_ADCAL;         // Start calibration
 8001742:	4b28      	ldr	r3, [pc, #160]	@ (80017e4 <ADC_Poten_PA7_Init+0x144>)
 8001744:	689b      	ldr	r3, [r3, #8]
 8001746:	4a27      	ldr	r2, [pc, #156]	@ (80017e4 <ADC_Poten_PA7_Init+0x144>)
 8001748:	f043 4300 	orr.w	r3, r3, #2147483648	@ 0x80000000
 800174c:	6093      	str	r3, [r2, #8]
	while (ADC2->CR & ADC_CR_ADCAL);  // Wait for calibration to complete
 800174e:	bf00      	nop
 8001750:	4b24      	ldr	r3, [pc, #144]	@ (80017e4 <ADC_Poten_PA7_Init+0x144>)
 8001752:	689b      	ldr	r3, [r3, #8]
 8001754:	2b00      	cmp	r3, #0
 8001756:	dbfb      	blt.n	8001750 <ADC_Poten_PA7_Init+0xb0>

	// Enable ADC
	ADC2->CR |= ADC_CR_ADEN;
 8001758:	4b22      	ldr	r3, [pc, #136]	@ (80017e4 <ADC_Poten_PA7_Init+0x144>)
 800175a:	689b      	ldr	r3, [r3, #8]
 800175c:	4a21      	ldr	r2, [pc, #132]	@ (80017e4 <ADC_Poten_PA7_Init+0x144>)
 800175e:	f043 0301 	orr.w	r3, r3, #1
 8001762:	6093      	str	r3, [r2, #8]
	while (!(ADC2->ISR & ADC_ISR_ADRDY));  // Wait for ADC to be ready
 8001764:	bf00      	nop
 8001766:	4b1f      	ldr	r3, [pc, #124]	@ (80017e4 <ADC_Poten_PA7_Init+0x144>)
 8001768:	681b      	ldr	r3, [r3, #0]
 800176a:	f003 0301 	and.w	r3, r3, #1
 800176e:	2b00      	cmp	r3, #0
 8001770:	d0f9      	beq.n	8001766 <ADC_Poten_PA7_Init+0xc6>

    // Trigger from TIM3 TRGO
    ADC2->CFGR |= (0b00100 << 5);  // TIM3_TRGO = 4 (RM0440: Table 67. Interconnect 19)
 8001772:	4b1c      	ldr	r3, [pc, #112]	@ (80017e4 <ADC_Poten_PA7_Init+0x144>)
 8001774:	68db      	ldr	r3, [r3, #12]
 8001776:	4a1b      	ldr	r2, [pc, #108]	@ (80017e4 <ADC_Poten_PA7_Init+0x144>)
 8001778:	f043 0380 	orr.w	r3, r3, #128	@ 0x80
 800177c:	60d3      	str	r3, [r2, #12]
    ADC2->CFGR |= (0b01 << 10);    // Trigger on rising edge
 800177e:	4b19      	ldr	r3, [pc, #100]	@ (80017e4 <ADC_Poten_PA7_Init+0x144>)
 8001780:	68db      	ldr	r3, [r3, #12]
 8001782:	4a18      	ldr	r2, [pc, #96]	@ (80017e4 <ADC_Poten_PA7_Init+0x144>)
 8001784:	f443 6380 	orr.w	r3, r3, #1024	@ 0x400
 8001788:	60d3      	str	r3, [r2, #12]

    // Convert CH4 first -> SQ1
	ADC2->SQR1 |= (4 << 6);
 800178a:	4b16      	ldr	r3, [pc, #88]	@ (80017e4 <ADC_Poten_PA7_Init+0x144>)
 800178c:	6b1b      	ldr	r3, [r3, #48]	@ 0x30
 800178e:	4a15      	ldr	r2, [pc, #84]	@ (80017e4 <ADC_Poten_PA7_Init+0x144>)
 8001790:	f443 7380 	orr.w	r3, r3, #256	@ 0x100
 8001794:	6313      	str	r3, [r2, #48]	@ 0x30

    // Set sample time for SMP4 (CH4) -> 47.5 ADC Clk cycles
	ADC2->SMPR1 &= ~(0b111 << 12);
 8001796:	4b13      	ldr	r3, [pc, #76]	@ (80017e4 <ADC_Poten_PA7_Init+0x144>)
 8001798:	695b      	ldr	r3, [r3, #20]
 800179a:	4a12      	ldr	r2, [pc, #72]	@ (80017e4 <ADC_Poten_PA7_Init+0x144>)
 800179c:	f423 43e0 	bic.w	r3, r3, #28672	@ 0x7000
 80017a0:	6153      	str	r3, [r2, #20]
	ADC2->SMPR1 |= (0b100 << 12);
 80017a2:	4b10      	ldr	r3, [pc, #64]	@ (80017e4 <ADC_Poten_PA7_Init+0x144>)
 80017a4:	695b      	ldr	r3, [r3, #20]
 80017a6:	4a0f      	ldr	r2, [pc, #60]	@ (80017e4 <ADC_Poten_PA7_Init+0x144>)
 80017a8:	f443 4380 	orr.w	r3, r3, #16384	@ 0x4000
 80017ac:	6153      	str	r3, [r2, #20]

    // Enable end of conv interrupt EOCIE
    ADC2->IER |= ADC_IER_EOCIE;
 80017ae:	4b0d      	ldr	r3, [pc, #52]	@ (80017e4 <ADC_Poten_PA7_Init+0x144>)
 80017b0:	685b      	ldr	r3, [r3, #4]
 80017b2:	4a0c      	ldr	r2, [pc, #48]	@ (80017e4 <ADC_Poten_PA7_Init+0x144>)
 80017b4:	f043 0304 	orr.w	r3, r3, #4
 80017b8:	6053      	str	r3, [r2, #4]

    // Enable ADC interrupt in NVIC
    NVIC_SetPriority(ADC1_2_IRQn, 2);  // Optional: Set priority
 80017ba:	2102      	movs	r1, #2
 80017bc:	2012      	movs	r0, #18
 80017be:	f7ff ff45 	bl	800164c <__NVIC_SetPriority>
    NVIC_EnableIRQ(ADC1_2_IRQn);
 80017c2:	2012      	movs	r0, #18
 80017c4:	f7ff ff24 	bl	8001610 <__NVIC_EnableIRQ>

    // Start ADC conversion (triggered by TIM3_TRGO)
    ADC2->CR |= ADC_CR_ADSTART;
 80017c8:	4b06      	ldr	r3, [pc, #24]	@ (80017e4 <ADC_Poten_PA7_Init+0x144>)
 80017ca:	689b      	ldr	r3, [r3, #8]
 80017cc:	4a05      	ldr	r2, [pc, #20]	@ (80017e4 <ADC_Poten_PA7_Init+0x144>)
 80017ce:	f043 0304 	orr.w	r3, r3, #4
 80017d2:	6093      	str	r3, [r2, #8]
}
 80017d4:	bf00      	nop
 80017d6:	3708      	adds	r7, #8
 80017d8:	46bd      	mov	sp, r7
 80017da:	bd80      	pop	{r7, pc}
 80017dc:	40021000 	.word	0x40021000
 80017e0:	40000400 	.word	0x40000400
 80017e4:	50000100 	.word	0x50000100

080017e8 <ADC1_2_IRQHandler>:

// ADC Interrupt thingy
void ADC1_2_IRQHandler(void) {
 80017e8:	b480      	push	{r7}
 80017ea:	af00      	add	r7, sp, #0
    if (ADC2->ISR & ADC_ISR_EOC) {
 80017ec:	4b07      	ldr	r3, [pc, #28]	@ (800180c <ADC1_2_IRQHandler+0x24>)
 80017ee:	681b      	ldr	r3, [r3, #0]
 80017f0:	f003 0304 	and.w	r3, r3, #4
 80017f4:	2b00      	cmp	r3, #0
 80017f6:	d004      	beq.n	8001802 <ADC1_2_IRQHandler+0x1a>
    	// 12-bit result (0–4095)
    	ADC_Value_PA7 = ADC2->DR;
 80017f8:	4b04      	ldr	r3, [pc, #16]	@ (800180c <ADC1_2_IRQHandler+0x24>)
 80017fa:	6c1b      	ldr	r3, [r3, #64]	@ 0x40
 80017fc:	b29a      	uxth	r2, r3
 80017fe:	4b04      	ldr	r3, [pc, #16]	@ (8001810 <ADC1_2_IRQHandler+0x28>)
 8001800:	801a      	strh	r2, [r3, #0]
    }
}
 8001802:	bf00      	nop
 8001804:	46bd      	mov	sp, r7
 8001806:	f85d 7b04 	ldr.w	r7, [sp], #4
 800180a:	4770      	bx	lr
 800180c:	50000100 	.word	0x50000100
 8001810:	200000a8 	.word	0x200000a8

08001814 <Reset_Handler>:

    .section	.text.Reset_Handler
	.weak	Reset_Handler
	.type	Reset_Handler, %function
Reset_Handler:
  ldr   r0, =_estack
 8001814:	480d      	ldr	r0, [pc, #52]	@ (800184c <LoopForever+0x2>)
  mov   sp, r0          /* set stack pointer */
 8001816:	4685      	mov	sp, r0
  
/* Call the clock system initialization function.*/
    bl  SystemInit
 8001818:	f7ff fbf2 	bl	8001000 <SystemInit>

/* Copy the data segment initializers from flash to SRAM */
  ldr r0, =_sdata
 800181c:	480c      	ldr	r0, [pc, #48]	@ (8001850 <LoopForever+0x6>)
  ldr r1, =_edata
 800181e:	490d      	ldr	r1, [pc, #52]	@ (8001854 <LoopForever+0xa>)
  ldr r2, =_sidata
 8001820:	4a0d      	ldr	r2, [pc, #52]	@ (8001858 <LoopForever+0xe>)
  movs r3, #0
 8001822:	2300      	movs	r3, #0
  b	LoopCopyDataInit
 8001824:	e002      	b.n	800182c <LoopCopyDataInit>

08001826 <CopyDataInit>:

CopyDataInit:
  ldr r4, [r2, r3]
 8001826:	58d4      	ldr	r4, [r2, r3]
  str r4, [r0, r3]
 8001828:	50c4      	str	r4, [r0, r3]
  adds r3, r3, #4
 800182a:	3304      	adds	r3, #4

0800182c <LoopCopyDataInit>:

LoopCopyDataInit:
  adds r4, r0, r3
 800182c:	18c4      	adds	r4, r0, r3
  cmp r4, r1
 800182e:	428c      	cmp	r4, r1
  bcc CopyDataInit
 8001830:	d3f9      	bcc.n	8001826 <CopyDataInit>
  
/* Zero fill the bss segment. */
  ldr r2, =_sbss
 8001832:	4a0a      	ldr	r2, [pc, #40]	@ (800185c <LoopForever+0x12>)
  ldr r4, =_ebss
 8001834:	4c0a      	ldr	r4, [pc, #40]	@ (8001860 <LoopForever+0x16>)
  movs r3, #0
 8001836:	2300      	movs	r3, #0
  b LoopFillZerobss
 8001838:	e001      	b.n	800183e <LoopFillZerobss>

0800183a <FillZerobss>:

FillZerobss:
  str  r3, [r2]
 800183a:	6013      	str	r3, [r2, #0]
  adds r2, r2, #4
 800183c:	3204      	adds	r2, #4

0800183e <LoopFillZerobss>:

LoopFillZerobss:
  cmp r2, r4
 800183e:	42a2      	cmp	r2, r4
  bcc FillZerobss
 8001840:	d3fb      	bcc.n	800183a <FillZerobss>
/* Call static constructors */
    bl __libc_init_array
 8001842:	f000 fb59 	bl	8001ef8 <__libc_init_array>
/* Call the application's entry point.*/
	bl	main
 8001846:	f000 f89f 	bl	8001988 <main>

0800184a <LoopForever>:

LoopForever:
    b LoopForever
 800184a:	e7fe      	b.n	800184a <LoopForever>
  ldr   r0, =_estack
 800184c:	20008000 	.word	0x20008000
  ldr r0, =_sdata
 8001850:	20000000 	.word	0x20000000
  ldr r1, =_edata
 8001854:	20000088 	.word	0x20000088
  ldr r2, =_sidata
 8001858:	08002404 	.word	0x08002404
  ldr r2, =_sbss
 800185c:	20000088 	.word	0x20000088
  ldr r4, =_ebss
 8001860:	200001fc 	.word	0x200001fc

08001864 <CORDIC_IRQHandler>:
 * @retval : None
*/
    .section	.text.Default_Handler,"ax",%progbits
Default_Handler:
Infinite_Loop:
	b	Infinite_Loop
 8001864:	e7fe      	b.n	8001864 <CORDIC_IRQHandler>
	...

08001868 <Delay_TIM17_Init>:

#include "Delay_Timer.h"
#include "stm32g431xx.h"
#include <stdio.h>

void Delay_TIM17_Init(void){
 8001868:	b480      	push	{r7}
 800186a:	af00      	add	r7, sp, #0
	// Init Clk for TIM3
	RCC->APB2ENR |= RCC_APB2ENR_TIM17EN;
 800186c:	4b16      	ldr	r3, [pc, #88]	@ (80018c8 <Delay_TIM17_Init+0x60>)
 800186e:	6e1b      	ldr	r3, [r3, #96]	@ 0x60
 8001870:	4a15      	ldr	r2, [pc, #84]	@ (80018c8 <Delay_TIM17_Init+0x60>)
 8001872:	f443 2380 	orr.w	r3, r3, #262144	@ 0x40000
 8001876:	6613      	str	r3, [r2, #96]	@ 0x60

	 // Wait for clock stabilization (optional, for robustness)
	 while (!(RCC->APB2ENR & RCC_APB2ENR_TIM17EN)) {}
 8001878:	bf00      	nop
 800187a:	4b13      	ldr	r3, [pc, #76]	@ (80018c8 <Delay_TIM17_Init+0x60>)
 800187c:	6e1b      	ldr	r3, [r3, #96]	@ 0x60
 800187e:	f403 2380 	and.w	r3, r3, #262144	@ 0x40000
 8001882:	2b00      	cmp	r3, #0
 8001884:	d0f9      	beq.n	800187a <Delay_TIM17_Init+0x12>
	     // freq = Sys_Clk / (PSC + 1)(ARR + 1)
	     // 1MHz = 16 Mhz / (16 + 1)(userInput + 1)
	     // 1MHz == 1 uS
	     // therefore, set PSC = 16 and ARR = userInput

	TIM17->PSC = (SystemCoreClock / 1000000) - 1;        // Clk pre-scaler -> 16MHz / 16 = 1MHz
 8001886:	4b11      	ldr	r3, [pc, #68]	@ (80018cc <Delay_TIM17_Init+0x64>)
 8001888:	681b      	ldr	r3, [r3, #0]
 800188a:	4a11      	ldr	r2, [pc, #68]	@ (80018d0 <Delay_TIM17_Init+0x68>)
 800188c:	fba2 2303 	umull	r2, r3, r2, r3
 8001890:	0c9b      	lsrs	r3, r3, #18
 8001892:	4a10      	ldr	r2, [pc, #64]	@ (80018d4 <Delay_TIM17_Init+0x6c>)
 8001894:	3b01      	subs	r3, #1
 8001896:	6293      	str	r3, [r2, #40]	@ 0x28
	TIM17->ARR = 0xFFFF;        // Set maximum duty cycle == 1uS
 8001898:	4b0e      	ldr	r3, [pc, #56]	@ (80018d4 <Delay_TIM17_Init+0x6c>)
 800189a:	f64f 72ff 	movw	r2, #65535	@ 0xffff
 800189e:	62da      	str	r2, [r3, #44]	@ 0x2c

    // Generate an update event to apply PSC and ARR
	TIM17->EGR |= TIM_EGR_UG;
 80018a0:	4b0c      	ldr	r3, [pc, #48]	@ (80018d4 <Delay_TIM17_Init+0x6c>)
 80018a2:	695b      	ldr	r3, [r3, #20]
 80018a4:	4a0b      	ldr	r2, [pc, #44]	@ (80018d4 <Delay_TIM17_Init+0x6c>)
 80018a6:	f043 0301 	orr.w	r3, r3, #1
 80018aa:	6153      	str	r3, [r2, #20]

    // Clear the counter
	TIM17->CNT = 0;
 80018ac:	4b09      	ldr	r3, [pc, #36]	@ (80018d4 <Delay_TIM17_Init+0x6c>)
 80018ae:	2200      	movs	r2, #0
 80018b0:	625a      	str	r2, [r3, #36]	@ 0x24

	// Enable the timer
	TIM17->CR1 |= TIM_CR1_CEN;
 80018b2:	4b08      	ldr	r3, [pc, #32]	@ (80018d4 <Delay_TIM17_Init+0x6c>)
 80018b4:	681b      	ldr	r3, [r3, #0]
 80018b6:	4a07      	ldr	r2, [pc, #28]	@ (80018d4 <Delay_TIM17_Init+0x6c>)
 80018b8:	f043 0301 	orr.w	r3, r3, #1
 80018bc:	6013      	str	r3, [r2, #0]
}
 80018be:	bf00      	nop
 80018c0:	46bd      	mov	sp, r7
 80018c2:	f85d 7b04 	ldr.w	r7, [sp], #4
 80018c6:	4770      	bx	lr
 80018c8:	40021000 	.word	0x40021000
 80018cc:	20000004 	.word	0x20000004
 80018d0:	431bde83 	.word	0x431bde83
 80018d4:	40014800 	.word	0x40014800

080018d8 <Delay_uS>:

// 1,000,000 uS == 1 sec
void Delay_uS(uint16_t time_uS){
 80018d8:	b480      	push	{r7}
 80018da:	b083      	sub	sp, #12
 80018dc:	af00      	add	r7, sp, #0
 80018de:	4603      	mov	r3, r0
 80018e0:	80fb      	strh	r3, [r7, #6]
	// Reset the counter
	TIM17->CNT = 0;
 80018e2:	4b08      	ldr	r3, [pc, #32]	@ (8001904 <Delay_uS+0x2c>)
 80018e4:	2200      	movs	r2, #0
 80018e6:	625a      	str	r2, [r3, #36]	@ 0x24

	//while ((volatile uint16_t)TIM3->CNT < time_uS);
	while (TIM17->CNT < time_uS);
 80018e8:	bf00      	nop
 80018ea:	4b06      	ldr	r3, [pc, #24]	@ (8001904 <Delay_uS+0x2c>)
 80018ec:	6a5a      	ldr	r2, [r3, #36]	@ 0x24
 80018ee:	88fb      	ldrh	r3, [r7, #6]
 80018f0:	429a      	cmp	r2, r3
 80018f2:	d3fa      	bcc.n	80018ea <Delay_uS+0x12>
}
 80018f4:	bf00      	nop
 80018f6:	bf00      	nop
 80018f8:	370c      	adds	r7, #12
 80018fa:	46bd      	mov	sp, r7
 80018fc:	f85d 7b04 	ldr.w	r7, [sp], #4
 8001900:	4770      	bx	lr
 8001902:	bf00      	nop
 8001904:	40014800 	.word	0x40014800

08001908 <Delay_mS>:

// 1,000 uS == 1 mS --> 1000 mS == 1 sec
void Delay_mS(uint16_t time_mS){
 8001908:	b580      	push	{r7, lr}
 800190a:	b084      	sub	sp, #16
 800190c:	af00      	add	r7, sp, #0
 800190e:	4603      	mov	r3, r0
 8001910:	80fb      	strh	r3, [r7, #6]

	for (uint16_t counter = 0; counter < time_mS; counter++){
 8001912:	2300      	movs	r3, #0
 8001914:	81fb      	strh	r3, [r7, #14]
 8001916:	e006      	b.n	8001926 <Delay_mS+0x1e>
		Delay_uS(1000);
 8001918:	f44f 707a 	mov.w	r0, #1000	@ 0x3e8
 800191c:	f7ff ffdc 	bl	80018d8 <Delay_uS>
	for (uint16_t counter = 0; counter < time_mS; counter++){
 8001920:	89fb      	ldrh	r3, [r7, #14]
 8001922:	3301      	adds	r3, #1
 8001924:	81fb      	strh	r3, [r7, #14]
 8001926:	89fa      	ldrh	r2, [r7, #14]
 8001928:	88fb      	ldrh	r3, [r7, #6]
 800192a:	429a      	cmp	r2, r3
 800192c:	d3f4      	bcc.n	8001918 <Delay_mS+0x10>
	}
}
 800192e:	bf00      	nop
 8001930:	bf00      	nop
 8001932:	3710      	adds	r7, #16
 8001934:	46bd      	mov	sp, r7
 8001936:	bd80      	pop	{r7, pc}

08001938 <LED_PA10_Init>:

#define LED_PA10         (1 << 10)
#define DELAY_BRUTE_CNT  250000

// Turn on LED on breadboard
void LED_PA10_Init(void){
 8001938:	b480      	push	{r7}
 800193a:	af00      	add	r7, sp, #0
	// init Clk to GPIOA
	RCC->AHB2ENR |= RCC_AHB2ENR_GPIOAEN;
 800193c:	4b11      	ldr	r3, [pc, #68]	@ (8001984 <LED_PA10_Init+0x4c>)
 800193e:	6cdb      	ldr	r3, [r3, #76]	@ 0x4c
 8001940:	4a10      	ldr	r2, [pc, #64]	@ (8001984 <LED_PA10_Init+0x4c>)
 8001942:	f043 0301 	orr.w	r3, r3, #1
 8001946:	64d3      	str	r3, [r2, #76]	@ 0x4c

	// Clear PA10
	GPIOA->MODER &= ~(0b11 << 20);
 8001948:	f04f 4390 	mov.w	r3, #1207959552	@ 0x48000000
 800194c:	681b      	ldr	r3, [r3, #0]
 800194e:	f04f 4290 	mov.w	r2, #1207959552	@ 0x48000000
 8001952:	f423 1340 	bic.w	r3, r3, #3145728	@ 0x300000
 8001956:	6013      	str	r3, [r2, #0]

	// Set PA10 as output
	GPIOA->MODER |= (0b01 << 20);
 8001958:	f04f 4390 	mov.w	r3, #1207959552	@ 0x48000000
 800195c:	681b      	ldr	r3, [r3, #0]
 800195e:	f04f 4290 	mov.w	r2, #1207959552	@ 0x48000000
 8001962:	f443 1380 	orr.w	r3, r3, #1048576	@ 0x100000
 8001966:	6013      	str	r3, [r2, #0]

	// Set to LOW default
	GPIOA->ODR &= ~LED_PA10;
 8001968:	f04f 4390 	mov.w	r3, #1207959552	@ 0x48000000
 800196c:	695b      	ldr	r3, [r3, #20]
 800196e:	f04f 4290 	mov.w	r2, #1207959552	@ 0x48000000
 8001972:	f423 6380 	bic.w	r3, r3, #1024	@ 0x400
 8001976:	6153      	str	r3, [r2, #20]
}
 8001978:	bf00      	nop
 800197a:	46bd      	mov	sp, r7
 800197c:	f85d 7b04 	ldr.w	r7, [sp], #4
 8001980:	4770      	bx	lr
 8001982:	bf00      	nop
 8001984:	40021000 	.word	0x40021000

08001988 <main>:
uint8_t data_R[PLD_SIZE];
uint8_t ack_R[PLD_SIZE] = {"Received"};
#endif


int main(void){
 8001988:	b580      	push	{r7, lr}
 800198a:	b084      	sub	sp, #16
 800198c:	af00      	add	r7, sp, #0
	LED_PA10_Init();
 800198e:	f7ff ffd3 	bl	8001938 <LED_PA10_Init>
	USART2_PA2_Init();        // PA2 == COMP2_INM
 8001992:	f7fe fed9 	bl	8000748 <USART2_PA2_Init>
	ADC_Poten_PA7_Init();     // TIMER3
 8001996:	f7ff fe83 	bl	80016a0 <ADC_Poten_PA7_Init>
	Delay_TIM17_Init();       // Delay_mS()
 800199a:	f7ff ff65 	bl	8001868 <Delay_TIM17_Init>

	COMP1_Init();             // PA1+ | PA4-  -> P1
 800199e:	f7fe fc5f 	bl	8000260 <COMP1_Init>
	COMP3_Init_v2();          // PC1+ | PC0-  -> P2
 80019a2:	f7fe fcb9 	bl	8000318 <COMP3_Init_v2>
	COMP4_Init_v2();          // PB0+ | PB2-  -> P3
 80019a6:	f7fe fd09 	bl	80003bc <COMP4_Init_v2>

	PWM_PB6_TIM4_CH1_Init();  // M1H
 80019aa:	f7fe ffb5 	bl	8000918 <PWM_PB6_TIM4_CH1_Init>
	PWM_PB3_TIM2_CH2_Init();  // M1L
 80019ae:	f7ff f82f 	bl	8000a10 <PWM_PB3_TIM2_CH2_Init>
	PWM_PA15_TIM2_CH1_Init(); // M2H
 80019b2:	f7ff f8bb 	bl	8000b2c <PWM_PA15_TIM2_CH1_Init>
	PWM_PB7_TIM4_CH2_Init();  // M2L
 80019b6:	f7fe ff33 	bl	8000820 <PWM_PB7_TIM4_CH2_Init>
	PWM_PC2_TIM1_CH3_Init();  // M3H
 80019ba:	f7ff f951 	bl	8000c60 <PWM_PC2_TIM1_CH3_Init>
	PWM_PC3_TIM1_CH4_Init();  // M3L
 80019be:	f7ff f9d1 	bl	8000d64 <PWM_PC3_TIM1_CH4_Init>

	SPI2_Master_Init();
 80019c2:	f7fe fdc5 	bl	8000550 <SPI2_Master_Init>
  __ASM volatile ("MRS %0, primask" : "=r" (result) :: "memory");
 80019c6:	f3ef 8310 	mrs	r3, PRIMASK
 80019ca:	60fb      	str	r3, [r7, #12]
  return(result);
 80019cc:	68fb      	ldr	r3, [r7, #12]

	// Ensure global interrupts are enabled
	if (__get_PRIMASK() & 1){
 80019ce:	f003 0301 	and.w	r3, r3, #1
 80019d2:	2b00      	cmp	r3, #0
 80019d4:	d001      	beq.n	80019da <main+0x52>
  __ASM volatile ("cpsie i" : : : "memory");
 80019d6:	b662      	cpsie	i
}
 80019d8:	bf00      	nop
		__enable_irq();
	}

	// NRF24 Init
	csn_high();
 80019da:	f7ff fb23 	bl	8001024 <csn_high>
	nrf24_init();
 80019de:	f7ff fe07 	bl	80015f0 <nrf24_init>
	nrf24_tx_pwr(_0dbm);
 80019e2:	2003      	movs	r0, #3
 80019e4:	f7ff fc18 	bl	8001218 <nrf24_tx_pwr>
	nrf24_data_rate(_1mbps);
 80019e8:	2000      	movs	r0, #0
 80019ea:	f7ff fc3c 	bl	8001266 <nrf24_data_rate>
	nrf24_set_channel(78);
 80019ee:	204e      	movs	r0, #78	@ 0x4e
 80019f0:	f7ff fc67 	bl	80012c2 <nrf24_set_channel>
	nrf24_pipe_pld_size(0,PLD_SIZE);
 80019f4:	2120      	movs	r1, #32
 80019f6:	2000      	movs	r0, #0
 80019f8:	f7ff fc80 	bl	80012fc <nrf24_pipe_pld_size>
	uint8_t addr[5] = { 0x10, 0x21, 0x32, 0x43, 0x54};
 80019fc:	4a0d      	ldr	r2, [pc, #52]	@ (8001a34 <main+0xac>)
 80019fe:	1d3b      	adds	r3, r7, #4
 8001a00:	e892 0003 	ldmia.w	r2, {r0, r1}
 8001a04:	6018      	str	r0, [r3, #0]
 8001a06:	3304      	adds	r3, #4
 8001a08:	7019      	strb	r1, [r3, #0]
	nrf24_open_tx_pipe(addr);
 8001a0a:	1d3b      	adds	r3, r7, #4
 8001a0c:	4618      	mov	r0, r3
 8001a0e:	f7ff fc67 	bl	80012e0 <nrf24_open_tx_pipe>
	nrf24_open_rx_pipe(0,addr);
 8001a12:	1d3b      	adds	r3, r7, #4
 8001a14:	4619      	mov	r1, r3
 8001a16:	2000      	movs	r0, #0
 8001a18:	f7ff fcbe 	bl	8001398 <nrf24_open_rx_pipe>

#ifdef tx
	nrf24_stop_listen();
 8001a1c:	f7ff fd9e 	bl	800155c <nrf24_stop_listen>
	nrf24_listen();
#endif

	while (1){
#ifdef tx
		nrf24_transmit(data_T, sizeof(data_T));
 8001a20:	2120      	movs	r1, #32
 8001a22:	4805      	ldr	r0, [pc, #20]	@ (8001a38 <main+0xb0>)
 8001a24:	f7ff fdb4 	bl	8001590 <nrf24_transmit>
		Delay_mS(35); // 1mS originally
 8001a28:	2023      	movs	r0, #35	@ 0x23
 8001a2a:	f7ff ff6d 	bl	8001908 <Delay_mS>
		nrf24_transmit(data_T, sizeof(data_T));
 8001a2e:	bf00      	nop
 8001a30:	e7f6      	b.n	8001a20 <main+0x98>
 8001a32:	bf00      	nop
 8001a34:	080023f4 	.word	0x080023f4
 8001a38:	20000008 	.word	0x20000008

08001a3c <HAL_IncTick>:
  * @note This function is declared as __weak to be overwritten in case of other
  *      implementations in user file.
  * @retval None
  */
__weak void HAL_IncTick(void)
{
 8001a3c:	b480      	push	{r7}
 8001a3e:	af00      	add	r7, sp, #0
  uwTick += uwTickFreq;
 8001a40:	4b05      	ldr	r3, [pc, #20]	@ (8001a58 <HAL_IncTick+0x1c>)
 8001a42:	681a      	ldr	r2, [r3, #0]
 8001a44:	4b05      	ldr	r3, [pc, #20]	@ (8001a5c <HAL_IncTick+0x20>)
 8001a46:	681b      	ldr	r3, [r3, #0]
 8001a48:	4413      	add	r3, r2
 8001a4a:	4a03      	ldr	r2, [pc, #12]	@ (8001a58 <HAL_IncTick+0x1c>)
 8001a4c:	6013      	str	r3, [r2, #0]
}
 8001a4e:	bf00      	nop
 8001a50:	46bd      	mov	sp, r7
 8001a52:	f85d 7b04 	ldr.w	r7, [sp], #4
 8001a56:	4770      	bx	lr
 8001a58:	200000ac 	.word	0x200000ac
 8001a5c:	20000028 	.word	0x20000028

08001a60 <std>:
 8001a60:	2300      	movs	r3, #0
 8001a62:	b510      	push	{r4, lr}
 8001a64:	4604      	mov	r4, r0
 8001a66:	e9c0 3300 	strd	r3, r3, [r0]
 8001a6a:	e9c0 3304 	strd	r3, r3, [r0, #16]
 8001a6e:	6083      	str	r3, [r0, #8]
 8001a70:	8181      	strh	r1, [r0, #12]
 8001a72:	6643      	str	r3, [r0, #100]	@ 0x64
 8001a74:	81c2      	strh	r2, [r0, #14]
 8001a76:	6183      	str	r3, [r0, #24]
 8001a78:	4619      	mov	r1, r3
 8001a7a:	2208      	movs	r2, #8
 8001a7c:	305c      	adds	r0, #92	@ 0x5c
 8001a7e:	f000 f9e7 	bl	8001e50 <memset>
 8001a82:	4b0d      	ldr	r3, [pc, #52]	@ (8001ab8 <std+0x58>)
 8001a84:	6263      	str	r3, [r4, #36]	@ 0x24
 8001a86:	4b0d      	ldr	r3, [pc, #52]	@ (8001abc <std+0x5c>)
 8001a88:	62a3      	str	r3, [r4, #40]	@ 0x28
 8001a8a:	4b0d      	ldr	r3, [pc, #52]	@ (8001ac0 <std+0x60>)
 8001a8c:	62e3      	str	r3, [r4, #44]	@ 0x2c
 8001a8e:	4b0d      	ldr	r3, [pc, #52]	@ (8001ac4 <std+0x64>)
 8001a90:	6323      	str	r3, [r4, #48]	@ 0x30
 8001a92:	4b0d      	ldr	r3, [pc, #52]	@ (8001ac8 <std+0x68>)
 8001a94:	6224      	str	r4, [r4, #32]
 8001a96:	429c      	cmp	r4, r3
 8001a98:	d006      	beq.n	8001aa8 <std+0x48>
 8001a9a:	f103 0268 	add.w	r2, r3, #104	@ 0x68
 8001a9e:	4294      	cmp	r4, r2
 8001aa0:	d002      	beq.n	8001aa8 <std+0x48>
 8001aa2:	33d0      	adds	r3, #208	@ 0xd0
 8001aa4:	429c      	cmp	r4, r3
 8001aa6:	d105      	bne.n	8001ab4 <std+0x54>
 8001aa8:	f104 0058 	add.w	r0, r4, #88	@ 0x58
 8001aac:	e8bd 4010 	ldmia.w	sp!, {r4, lr}
 8001ab0:	f000 ba46 	b.w	8001f40 <__retarget_lock_init_recursive>
 8001ab4:	bd10      	pop	{r4, pc}
 8001ab6:	bf00      	nop
 8001ab8:	08001ca5 	.word	0x08001ca5
 8001abc:	08001cc7 	.word	0x08001cc7
 8001ac0:	08001cff 	.word	0x08001cff
 8001ac4:	08001d25 	.word	0x08001d25
 8001ac8:	200000b0 	.word	0x200000b0

08001acc <stdio_exit_handler>:
 8001acc:	4a02      	ldr	r2, [pc, #8]	@ (8001ad8 <stdio_exit_handler+0xc>)
 8001ace:	4903      	ldr	r1, [pc, #12]	@ (8001adc <stdio_exit_handler+0x10>)
 8001ad0:	4803      	ldr	r0, [pc, #12]	@ (8001ae0 <stdio_exit_handler+0x14>)
 8001ad2:	f000 b86b 	b.w	8001bac <_fwalk_sglue>
 8001ad6:	bf00      	nop
 8001ad8:	2000002c 	.word	0x2000002c
 8001adc:	0800223d 	.word	0x0800223d
 8001ae0:	2000003c 	.word	0x2000003c

08001ae4 <cleanup_stdio>:
 8001ae4:	6841      	ldr	r1, [r0, #4]
 8001ae6:	4b0c      	ldr	r3, [pc, #48]	@ (8001b18 <cleanup_stdio+0x34>)
 8001ae8:	4299      	cmp	r1, r3
 8001aea:	b510      	push	{r4, lr}
 8001aec:	4604      	mov	r4, r0
 8001aee:	d001      	beq.n	8001af4 <cleanup_stdio+0x10>
 8001af0:	f000 fba4 	bl	800223c <_fflush_r>
 8001af4:	68a1      	ldr	r1, [r4, #8]
 8001af6:	4b09      	ldr	r3, [pc, #36]	@ (8001b1c <cleanup_stdio+0x38>)
 8001af8:	4299      	cmp	r1, r3
 8001afa:	d002      	beq.n	8001b02 <cleanup_stdio+0x1e>
 8001afc:	4620      	mov	r0, r4
 8001afe:	f000 fb9d 	bl	800223c <_fflush_r>
 8001b02:	68e1      	ldr	r1, [r4, #12]
 8001b04:	4b06      	ldr	r3, [pc, #24]	@ (8001b20 <cleanup_stdio+0x3c>)
 8001b06:	4299      	cmp	r1, r3
 8001b08:	d004      	beq.n	8001b14 <cleanup_stdio+0x30>
 8001b0a:	4620      	mov	r0, r4
 8001b0c:	e8bd 4010 	ldmia.w	sp!, {r4, lr}
 8001b10:	f000 bb94 	b.w	800223c <_fflush_r>
 8001b14:	bd10      	pop	{r4, pc}
 8001b16:	bf00      	nop
 8001b18:	200000b0 	.word	0x200000b0
 8001b1c:	20000118 	.word	0x20000118
 8001b20:	20000180 	.word	0x20000180

08001b24 <global_stdio_init.part.0>:
 8001b24:	4b0c      	ldr	r3, [pc, #48]	@ (8001b58 <global_stdio_init.part.0+0x34>)
 8001b26:	4a0d      	ldr	r2, [pc, #52]	@ (8001b5c <global_stdio_init.part.0+0x38>)
 8001b28:	480d      	ldr	r0, [pc, #52]	@ (8001b60 <global_stdio_init.part.0+0x3c>)
 8001b2a:	b510      	push	{r4, lr}
 8001b2c:	2104      	movs	r1, #4
 8001b2e:	601a      	str	r2, [r3, #0]
 8001b30:	2200      	movs	r2, #0
 8001b32:	f7ff ff95 	bl	8001a60 <std>
 8001b36:	4b0a      	ldr	r3, [pc, #40]	@ (8001b60 <global_stdio_init.part.0+0x3c>)
 8001b38:	2201      	movs	r2, #1
 8001b3a:	461c      	mov	r4, r3
 8001b3c:	2109      	movs	r1, #9
 8001b3e:	f103 0068 	add.w	r0, r3, #104	@ 0x68
 8001b42:	f7ff ff8d 	bl	8001a60 <std>
 8001b46:	f104 00d0 	add.w	r0, r4, #208	@ 0xd0
 8001b4a:	2202      	movs	r2, #2
 8001b4c:	e8bd 4010 	ldmia.w	sp!, {r4, lr}
 8001b50:	2112      	movs	r1, #18
 8001b52:	f7ff bf85 	b.w	8001a60 <std>
 8001b56:	bf00      	nop
 8001b58:	200001e8 	.word	0x200001e8
 8001b5c:	08001acd 	.word	0x08001acd
 8001b60:	200000b0 	.word	0x200000b0

08001b64 <__sfp_lock_acquire>:
 8001b64:	4801      	ldr	r0, [pc, #4]	@ (8001b6c <__sfp_lock_acquire+0x8>)
 8001b66:	f000 b9ec 	b.w	8001f42 <__retarget_lock_acquire_recursive>
 8001b6a:	bf00      	nop
 8001b6c:	200001f1 	.word	0x200001f1

08001b70 <__sfp_lock_release>:
 8001b70:	4801      	ldr	r0, [pc, #4]	@ (8001b78 <__sfp_lock_release+0x8>)
 8001b72:	f000 b9e7 	b.w	8001f44 <__retarget_lock_release_recursive>
 8001b76:	bf00      	nop
 8001b78:	200001f1 	.word	0x200001f1

08001b7c <__sinit>:
 8001b7c:	b510      	push	{r4, lr}
 8001b7e:	4604      	mov	r4, r0
 8001b80:	f7ff fff0 	bl	8001b64 <__sfp_lock_acquire>
 8001b84:	6a23      	ldr	r3, [r4, #32]
 8001b86:	b11b      	cbz	r3, 8001b90 <__sinit+0x14>
 8001b88:	e8bd 4010 	ldmia.w	sp!, {r4, lr}
 8001b8c:	f7ff bff0 	b.w	8001b70 <__sfp_lock_release>
 8001b90:	4b04      	ldr	r3, [pc, #16]	@ (8001ba4 <__sinit+0x28>)
 8001b92:	6223      	str	r3, [r4, #32]
 8001b94:	4b04      	ldr	r3, [pc, #16]	@ (8001ba8 <__sinit+0x2c>)
 8001b96:	681b      	ldr	r3, [r3, #0]
 8001b98:	2b00      	cmp	r3, #0
 8001b9a:	d1f5      	bne.n	8001b88 <__sinit+0xc>
 8001b9c:	f7ff ffc2 	bl	8001b24 <global_stdio_init.part.0>
 8001ba0:	e7f2      	b.n	8001b88 <__sinit+0xc>
 8001ba2:	bf00      	nop
 8001ba4:	08001ae5 	.word	0x08001ae5
 8001ba8:	200001e8 	.word	0x200001e8

08001bac <_fwalk_sglue>:
 8001bac:	e92d 43f8 	stmdb	sp!, {r3, r4, r5, r6, r7, r8, r9, lr}
 8001bb0:	4607      	mov	r7, r0
 8001bb2:	4688      	mov	r8, r1
 8001bb4:	4614      	mov	r4, r2
 8001bb6:	2600      	movs	r6, #0
 8001bb8:	e9d4 9501 	ldrd	r9, r5, [r4, #4]
 8001bbc:	f1b9 0901 	subs.w	r9, r9, #1
 8001bc0:	d505      	bpl.n	8001bce <_fwalk_sglue+0x22>
 8001bc2:	6824      	ldr	r4, [r4, #0]
 8001bc4:	2c00      	cmp	r4, #0
 8001bc6:	d1f7      	bne.n	8001bb8 <_fwalk_sglue+0xc>
 8001bc8:	4630      	mov	r0, r6
 8001bca:	e8bd 83f8 	ldmia.w	sp!, {r3, r4, r5, r6, r7, r8, r9, pc}
 8001bce:	89ab      	ldrh	r3, [r5, #12]
 8001bd0:	2b01      	cmp	r3, #1
 8001bd2:	d907      	bls.n	8001be4 <_fwalk_sglue+0x38>
 8001bd4:	f9b5 300e 	ldrsh.w	r3, [r5, #14]
 8001bd8:	3301      	adds	r3, #1
 8001bda:	d003      	beq.n	8001be4 <_fwalk_sglue+0x38>
 8001bdc:	4629      	mov	r1, r5
 8001bde:	4638      	mov	r0, r7
 8001be0:	47c0      	blx	r8
 8001be2:	4306      	orrs	r6, r0
 8001be4:	3568      	adds	r5, #104	@ 0x68
 8001be6:	e7e9      	b.n	8001bbc <_fwalk_sglue+0x10>

08001be8 <_puts_r>:
 8001be8:	6a03      	ldr	r3, [r0, #32]
 8001bea:	b570      	push	{r4, r5, r6, lr}
 8001bec:	6884      	ldr	r4, [r0, #8]
 8001bee:	4605      	mov	r5, r0
 8001bf0:	460e      	mov	r6, r1
 8001bf2:	b90b      	cbnz	r3, 8001bf8 <_puts_r+0x10>
 8001bf4:	f7ff ffc2 	bl	8001b7c <__sinit>
 8001bf8:	6e63      	ldr	r3, [r4, #100]	@ 0x64
 8001bfa:	07db      	lsls	r3, r3, #31
 8001bfc:	d405      	bmi.n	8001c0a <_puts_r+0x22>
 8001bfe:	89a3      	ldrh	r3, [r4, #12]
 8001c00:	0598      	lsls	r0, r3, #22
 8001c02:	d402      	bmi.n	8001c0a <_puts_r+0x22>
 8001c04:	6da0      	ldr	r0, [r4, #88]	@ 0x58
 8001c06:	f000 f99c 	bl	8001f42 <__retarget_lock_acquire_recursive>
 8001c0a:	89a3      	ldrh	r3, [r4, #12]
 8001c0c:	0719      	lsls	r1, r3, #28
 8001c0e:	d502      	bpl.n	8001c16 <_puts_r+0x2e>
 8001c10:	6923      	ldr	r3, [r4, #16]
 8001c12:	2b00      	cmp	r3, #0
 8001c14:	d135      	bne.n	8001c82 <_puts_r+0x9a>
 8001c16:	4621      	mov	r1, r4
 8001c18:	4628      	mov	r0, r5
 8001c1a:	f000 f8c5 	bl	8001da8 <__swsetup_r>
 8001c1e:	b380      	cbz	r0, 8001c82 <_puts_r+0x9a>
 8001c20:	f04f 35ff 	mov.w	r5, #4294967295
 8001c24:	6e63      	ldr	r3, [r4, #100]	@ 0x64
 8001c26:	07da      	lsls	r2, r3, #31
 8001c28:	d405      	bmi.n	8001c36 <_puts_r+0x4e>
 8001c2a:	89a3      	ldrh	r3, [r4, #12]
 8001c2c:	059b      	lsls	r3, r3, #22
 8001c2e:	d402      	bmi.n	8001c36 <_puts_r+0x4e>
 8001c30:	6da0      	ldr	r0, [r4, #88]	@ 0x58
 8001c32:	f000 f987 	bl	8001f44 <__retarget_lock_release_recursive>
 8001c36:	4628      	mov	r0, r5
 8001c38:	bd70      	pop	{r4, r5, r6, pc}
 8001c3a:	2b00      	cmp	r3, #0
 8001c3c:	da04      	bge.n	8001c48 <_puts_r+0x60>
 8001c3e:	69a2      	ldr	r2, [r4, #24]
 8001c40:	4293      	cmp	r3, r2
 8001c42:	db17      	blt.n	8001c74 <_puts_r+0x8c>
 8001c44:	290a      	cmp	r1, #10
 8001c46:	d015      	beq.n	8001c74 <_puts_r+0x8c>
 8001c48:	6823      	ldr	r3, [r4, #0]
 8001c4a:	1c5a      	adds	r2, r3, #1
 8001c4c:	6022      	str	r2, [r4, #0]
 8001c4e:	7019      	strb	r1, [r3, #0]
 8001c50:	68a3      	ldr	r3, [r4, #8]
 8001c52:	f816 1f01 	ldrb.w	r1, [r6, #1]!
 8001c56:	3b01      	subs	r3, #1
 8001c58:	60a3      	str	r3, [r4, #8]
 8001c5a:	2900      	cmp	r1, #0
 8001c5c:	d1ed      	bne.n	8001c3a <_puts_r+0x52>
 8001c5e:	2b00      	cmp	r3, #0
 8001c60:	da11      	bge.n	8001c86 <_puts_r+0x9e>
 8001c62:	4622      	mov	r2, r4
 8001c64:	210a      	movs	r1, #10
 8001c66:	4628      	mov	r0, r5
 8001c68:	f000 f860 	bl	8001d2c <__swbuf_r>
 8001c6c:	3001      	adds	r0, #1
 8001c6e:	d0d7      	beq.n	8001c20 <_puts_r+0x38>
 8001c70:	250a      	movs	r5, #10
 8001c72:	e7d7      	b.n	8001c24 <_puts_r+0x3c>
 8001c74:	4622      	mov	r2, r4
 8001c76:	4628      	mov	r0, r5
 8001c78:	f000 f858 	bl	8001d2c <__swbuf_r>
 8001c7c:	3001      	adds	r0, #1
 8001c7e:	d1e7      	bne.n	8001c50 <_puts_r+0x68>
 8001c80:	e7ce      	b.n	8001c20 <_puts_r+0x38>
 8001c82:	3e01      	subs	r6, #1
 8001c84:	e7e4      	b.n	8001c50 <_puts_r+0x68>
 8001c86:	6823      	ldr	r3, [r4, #0]
 8001c88:	1c5a      	adds	r2, r3, #1
 8001c8a:	6022      	str	r2, [r4, #0]
 8001c8c:	220a      	movs	r2, #10
 8001c8e:	701a      	strb	r2, [r3, #0]
 8001c90:	e7ee      	b.n	8001c70 <_puts_r+0x88>
	...

08001c94 <puts>:
 8001c94:	4b02      	ldr	r3, [pc, #8]	@ (8001ca0 <puts+0xc>)
 8001c96:	4601      	mov	r1, r0
 8001c98:	6818      	ldr	r0, [r3, #0]
 8001c9a:	f7ff bfa5 	b.w	8001be8 <_puts_r>
 8001c9e:	bf00      	nop
 8001ca0:	20000038 	.word	0x20000038

08001ca4 <__sread>:
 8001ca4:	b510      	push	{r4, lr}
 8001ca6:	460c      	mov	r4, r1
 8001ca8:	f9b1 100e 	ldrsh.w	r1, [r1, #14]
 8001cac:	f000 f8fa 	bl	8001ea4 <_read_r>
 8001cb0:	2800      	cmp	r0, #0
 8001cb2:	bfab      	itete	ge
 8001cb4:	6d63      	ldrge	r3, [r4, #84]	@ 0x54
 8001cb6:	89a3      	ldrhlt	r3, [r4, #12]
 8001cb8:	181b      	addge	r3, r3, r0
 8001cba:	f423 5380 	biclt.w	r3, r3, #4096	@ 0x1000
 8001cbe:	bfac      	ite	ge
 8001cc0:	6563      	strge	r3, [r4, #84]	@ 0x54
 8001cc2:	81a3      	strhlt	r3, [r4, #12]
 8001cc4:	bd10      	pop	{r4, pc}

08001cc6 <__swrite>:
 8001cc6:	e92d 41f0 	stmdb	sp!, {r4, r5, r6, r7, r8, lr}
 8001cca:	461f      	mov	r7, r3
 8001ccc:	898b      	ldrh	r3, [r1, #12]
 8001cce:	05db      	lsls	r3, r3, #23
 8001cd0:	4605      	mov	r5, r0
 8001cd2:	460c      	mov	r4, r1
 8001cd4:	4616      	mov	r6, r2
 8001cd6:	d505      	bpl.n	8001ce4 <__swrite+0x1e>
 8001cd8:	f9b1 100e 	ldrsh.w	r1, [r1, #14]
 8001cdc:	2302      	movs	r3, #2
 8001cde:	2200      	movs	r2, #0
 8001ce0:	f000 f8ce 	bl	8001e80 <_lseek_r>
 8001ce4:	89a3      	ldrh	r3, [r4, #12]
 8001ce6:	f9b4 100e 	ldrsh.w	r1, [r4, #14]
 8001cea:	f423 5380 	bic.w	r3, r3, #4096	@ 0x1000
 8001cee:	81a3      	strh	r3, [r4, #12]
 8001cf0:	4632      	mov	r2, r6
 8001cf2:	463b      	mov	r3, r7
 8001cf4:	4628      	mov	r0, r5
 8001cf6:	e8bd 41f0 	ldmia.w	sp!, {r4, r5, r6, r7, r8, lr}
 8001cfa:	f000 b8e5 	b.w	8001ec8 <_write_r>

08001cfe <__sseek>:
 8001cfe:	b510      	push	{r4, lr}
 8001d00:	460c      	mov	r4, r1
 8001d02:	f9b1 100e 	ldrsh.w	r1, [r1, #14]
 8001d06:	f000 f8bb 	bl	8001e80 <_lseek_r>
 8001d0a:	f9b4 300c 	ldrsh.w	r3, [r4, #12]
 8001d0e:	1c42      	adds	r2, r0, #1
 8001d10:	bf0b      	itete	eq
 8001d12:	f423 5380 	biceq.w	r3, r3, #4096	@ 0x1000
 8001d16:	f443 5380 	orrne.w	r3, r3, #4096	@ 0x1000
 8001d1a:	81a3      	strheq	r3, [r4, #12]
 8001d1c:	81a3      	strhne	r3, [r4, #12]
 8001d1e:	bf18      	it	ne
 8001d20:	6560      	strne	r0, [r4, #84]	@ 0x54
 8001d22:	bd10      	pop	{r4, pc}

08001d24 <__sclose>:
 8001d24:	f9b1 100e 	ldrsh.w	r1, [r1, #14]
 8001d28:	f000 b89a 	b.w	8001e60 <_close_r>

08001d2c <__swbuf_r>:
 8001d2c:	b5f8      	push	{r3, r4, r5, r6, r7, lr}
 8001d2e:	460e      	mov	r6, r1
 8001d30:	4614      	mov	r4, r2
 8001d32:	4605      	mov	r5, r0
 8001d34:	b118      	cbz	r0, 8001d3e <__swbuf_r+0x12>
 8001d36:	6a03      	ldr	r3, [r0, #32]
 8001d38:	b90b      	cbnz	r3, 8001d3e <__swbuf_r+0x12>
 8001d3a:	f7ff ff1f 	bl	8001b7c <__sinit>
 8001d3e:	69a3      	ldr	r3, [r4, #24]
 8001d40:	60a3      	str	r3, [r4, #8]
 8001d42:	89a3      	ldrh	r3, [r4, #12]
 8001d44:	071a      	lsls	r2, r3, #28
 8001d46:	d501      	bpl.n	8001d4c <__swbuf_r+0x20>
 8001d48:	6923      	ldr	r3, [r4, #16]
 8001d4a:	b943      	cbnz	r3, 8001d5e <__swbuf_r+0x32>
 8001d4c:	4621      	mov	r1, r4
 8001d4e:	4628      	mov	r0, r5
 8001d50:	f000 f82a 	bl	8001da8 <__swsetup_r>
 8001d54:	b118      	cbz	r0, 8001d5e <__swbuf_r+0x32>
 8001d56:	f04f 37ff 	mov.w	r7, #4294967295
 8001d5a:	4638      	mov	r0, r7
 8001d5c:	bdf8      	pop	{r3, r4, r5, r6, r7, pc}
 8001d5e:	6823      	ldr	r3, [r4, #0]
 8001d60:	6922      	ldr	r2, [r4, #16]
 8001d62:	1a98      	subs	r0, r3, r2
 8001d64:	6963      	ldr	r3, [r4, #20]
 8001d66:	b2f6      	uxtb	r6, r6
 8001d68:	4283      	cmp	r3, r0
 8001d6a:	4637      	mov	r7, r6
 8001d6c:	dc05      	bgt.n	8001d7a <__swbuf_r+0x4e>
 8001d6e:	4621      	mov	r1, r4
 8001d70:	4628      	mov	r0, r5
 8001d72:	f000 fa63 	bl	800223c <_fflush_r>
 8001d76:	2800      	cmp	r0, #0
 8001d78:	d1ed      	bne.n	8001d56 <__swbuf_r+0x2a>
 8001d7a:	68a3      	ldr	r3, [r4, #8]
 8001d7c:	3b01      	subs	r3, #1
 8001d7e:	60a3      	str	r3, [r4, #8]
 8001d80:	6823      	ldr	r3, [r4, #0]
 8001d82:	1c5a      	adds	r2, r3, #1
 8001d84:	6022      	str	r2, [r4, #0]
 8001d86:	701e      	strb	r6, [r3, #0]
 8001d88:	6962      	ldr	r2, [r4, #20]
 8001d8a:	1c43      	adds	r3, r0, #1
 8001d8c:	429a      	cmp	r2, r3
 8001d8e:	d004      	beq.n	8001d9a <__swbuf_r+0x6e>
 8001d90:	89a3      	ldrh	r3, [r4, #12]
 8001d92:	07db      	lsls	r3, r3, #31
 8001d94:	d5e1      	bpl.n	8001d5a <__swbuf_r+0x2e>
 8001d96:	2e0a      	cmp	r6, #10
 8001d98:	d1df      	bne.n	8001d5a <__swbuf_r+0x2e>
 8001d9a:	4621      	mov	r1, r4
 8001d9c:	4628      	mov	r0, r5
 8001d9e:	f000 fa4d 	bl	800223c <_fflush_r>
 8001da2:	2800      	cmp	r0, #0
 8001da4:	d0d9      	beq.n	8001d5a <__swbuf_r+0x2e>
 8001da6:	e7d6      	b.n	8001d56 <__swbuf_r+0x2a>

08001da8 <__swsetup_r>:
 8001da8:	b538      	push	{r3, r4, r5, lr}
 8001daa:	4b28      	ldr	r3, [pc, #160]	@ (8001e4c <__swsetup_r+0xa4>)
 8001dac:	4605      	mov	r5, r0
 8001dae:	6818      	ldr	r0, [r3, #0]
 8001db0:	460c      	mov	r4, r1
 8001db2:	b118      	cbz	r0, 8001dbc <__swsetup_r+0x14>
 8001db4:	6a03      	ldr	r3, [r0, #32]
 8001db6:	b90b      	cbnz	r3, 8001dbc <__swsetup_r+0x14>
 8001db8:	f7ff fee0 	bl	8001b7c <__sinit>
 8001dbc:	f9b4 300c 	ldrsh.w	r3, [r4, #12]
 8001dc0:	071a      	lsls	r2, r3, #28
 8001dc2:	d421      	bmi.n	8001e08 <__swsetup_r+0x60>
 8001dc4:	06d8      	lsls	r0, r3, #27
 8001dc6:	d407      	bmi.n	8001dd8 <__swsetup_r+0x30>
 8001dc8:	2209      	movs	r2, #9
 8001dca:	602a      	str	r2, [r5, #0]
 8001dcc:	f043 0340 	orr.w	r3, r3, #64	@ 0x40
 8001dd0:	81a3      	strh	r3, [r4, #12]
 8001dd2:	f04f 30ff 	mov.w	r0, #4294967295
 8001dd6:	e030      	b.n	8001e3a <__swsetup_r+0x92>
 8001dd8:	0759      	lsls	r1, r3, #29
 8001dda:	d512      	bpl.n	8001e02 <__swsetup_r+0x5a>
 8001ddc:	6b61      	ldr	r1, [r4, #52]	@ 0x34
 8001dde:	b141      	cbz	r1, 8001df2 <__swsetup_r+0x4a>
 8001de0:	f104 0344 	add.w	r3, r4, #68	@ 0x44
 8001de4:	4299      	cmp	r1, r3
 8001de6:	d002      	beq.n	8001dee <__swsetup_r+0x46>
 8001de8:	4628      	mov	r0, r5
 8001dea:	f000 f8ad 	bl	8001f48 <_free_r>
 8001dee:	2300      	movs	r3, #0
 8001df0:	6363      	str	r3, [r4, #52]	@ 0x34
 8001df2:	2200      	movs	r2, #0
 8001df4:	f9b4 300c 	ldrsh.w	r3, [r4, #12]
 8001df8:	6062      	str	r2, [r4, #4]
 8001dfa:	6922      	ldr	r2, [r4, #16]
 8001dfc:	6022      	str	r2, [r4, #0]
 8001dfe:	f023 0324 	bic.w	r3, r3, #36	@ 0x24
 8001e02:	f043 0308 	orr.w	r3, r3, #8
 8001e06:	81a3      	strh	r3, [r4, #12]
 8001e08:	6922      	ldr	r2, [r4, #16]
 8001e0a:	b93a      	cbnz	r2, 8001e1c <__swsetup_r+0x74>
 8001e0c:	059a      	lsls	r2, r3, #22
 8001e0e:	d501      	bpl.n	8001e14 <__swsetup_r+0x6c>
 8001e10:	0618      	lsls	r0, r3, #24
 8001e12:	d503      	bpl.n	8001e1c <__swsetup_r+0x74>
 8001e14:	4621      	mov	r1, r4
 8001e16:	4628      	mov	r0, r5
 8001e18:	f000 fa5c 	bl	80022d4 <__smakebuf_r>
 8001e1c:	f9b4 300c 	ldrsh.w	r3, [r4, #12]
 8001e20:	f013 0201 	ands.w	r2, r3, #1
 8001e24:	d00a      	beq.n	8001e3c <__swsetup_r+0x94>
 8001e26:	2200      	movs	r2, #0
 8001e28:	60a2      	str	r2, [r4, #8]
 8001e2a:	6962      	ldr	r2, [r4, #20]
 8001e2c:	4252      	negs	r2, r2
 8001e2e:	61a2      	str	r2, [r4, #24]
 8001e30:	6922      	ldr	r2, [r4, #16]
 8001e32:	b942      	cbnz	r2, 8001e46 <__swsetup_r+0x9e>
 8001e34:	f013 0080 	ands.w	r0, r3, #128	@ 0x80
 8001e38:	d1c8      	bne.n	8001dcc <__swsetup_r+0x24>
 8001e3a:	bd38      	pop	{r3, r4, r5, pc}
 8001e3c:	0799      	lsls	r1, r3, #30
 8001e3e:	bf58      	it	pl
 8001e40:	6962      	ldrpl	r2, [r4, #20]
 8001e42:	60a2      	str	r2, [r4, #8]
 8001e44:	e7f4      	b.n	8001e30 <__swsetup_r+0x88>
 8001e46:	2000      	movs	r0, #0
 8001e48:	e7f7      	b.n	8001e3a <__swsetup_r+0x92>
 8001e4a:	bf00      	nop
 8001e4c:	20000038 	.word	0x20000038

08001e50 <memset>:
 8001e50:	4402      	add	r2, r0
 8001e52:	4603      	mov	r3, r0
 8001e54:	4293      	cmp	r3, r2
 8001e56:	d100      	bne.n	8001e5a <memset+0xa>
 8001e58:	4770      	bx	lr
 8001e5a:	f803 1b01 	strb.w	r1, [r3], #1
 8001e5e:	e7f9      	b.n	8001e54 <memset+0x4>

08001e60 <_close_r>:
 8001e60:	b538      	push	{r3, r4, r5, lr}
 8001e62:	4d06      	ldr	r5, [pc, #24]	@ (8001e7c <_close_r+0x1c>)
 8001e64:	2300      	movs	r3, #0
 8001e66:	4604      	mov	r4, r0
 8001e68:	4608      	mov	r0, r1
 8001e6a:	602b      	str	r3, [r5, #0]
 8001e6c:	f7ff f85e 	bl	8000f2c <_close>
 8001e70:	1c43      	adds	r3, r0, #1
 8001e72:	d102      	bne.n	8001e7a <_close_r+0x1a>
 8001e74:	682b      	ldr	r3, [r5, #0]
 8001e76:	b103      	cbz	r3, 8001e7a <_close_r+0x1a>
 8001e78:	6023      	str	r3, [r4, #0]
 8001e7a:	bd38      	pop	{r3, r4, r5, pc}
 8001e7c:	200001ec 	.word	0x200001ec

08001e80 <_lseek_r>:
 8001e80:	b538      	push	{r3, r4, r5, lr}
 8001e82:	4d07      	ldr	r5, [pc, #28]	@ (8001ea0 <_lseek_r+0x20>)
 8001e84:	4604      	mov	r4, r0
 8001e86:	4608      	mov	r0, r1
 8001e88:	4611      	mov	r1, r2
 8001e8a:	2200      	movs	r2, #0
 8001e8c:	602a      	str	r2, [r5, #0]
 8001e8e:	461a      	mov	r2, r3
 8001e90:	f7ff f873 	bl	8000f7a <_lseek>
 8001e94:	1c43      	adds	r3, r0, #1
 8001e96:	d102      	bne.n	8001e9e <_lseek_r+0x1e>
 8001e98:	682b      	ldr	r3, [r5, #0]
 8001e9a:	b103      	cbz	r3, 8001e9e <_lseek_r+0x1e>
 8001e9c:	6023      	str	r3, [r4, #0]
 8001e9e:	bd38      	pop	{r3, r4, r5, pc}
 8001ea0:	200001ec 	.word	0x200001ec

08001ea4 <_read_r>:
 8001ea4:	b538      	push	{r3, r4, r5, lr}
 8001ea6:	4d07      	ldr	r5, [pc, #28]	@ (8001ec4 <_read_r+0x20>)
 8001ea8:	4604      	mov	r4, r0
 8001eaa:	4608      	mov	r0, r1
 8001eac:	4611      	mov	r1, r2
 8001eae:	2200      	movs	r2, #0
 8001eb0:	602a      	str	r2, [r5, #0]
 8001eb2:	461a      	mov	r2, r3
 8001eb4:	f7ff f801 	bl	8000eba <_read>
 8001eb8:	1c43      	adds	r3, r0, #1
 8001eba:	d102      	bne.n	8001ec2 <_read_r+0x1e>
 8001ebc:	682b      	ldr	r3, [r5, #0]
 8001ebe:	b103      	cbz	r3, 8001ec2 <_read_r+0x1e>
 8001ec0:	6023      	str	r3, [r4, #0]
 8001ec2:	bd38      	pop	{r3, r4, r5, pc}
 8001ec4:	200001ec 	.word	0x200001ec

08001ec8 <_write_r>:
 8001ec8:	b538      	push	{r3, r4, r5, lr}
 8001eca:	4d07      	ldr	r5, [pc, #28]	@ (8001ee8 <_write_r+0x20>)
 8001ecc:	4604      	mov	r4, r0
 8001ece:	4608      	mov	r0, r1
 8001ed0:	4611      	mov	r1, r2
 8001ed2:	2200      	movs	r2, #0
 8001ed4:	602a      	str	r2, [r5, #0]
 8001ed6:	461a      	mov	r2, r3
 8001ed8:	f7ff f80c 	bl	8000ef4 <_write>
 8001edc:	1c43      	adds	r3, r0, #1
 8001ede:	d102      	bne.n	8001ee6 <_write_r+0x1e>
 8001ee0:	682b      	ldr	r3, [r5, #0]
 8001ee2:	b103      	cbz	r3, 8001ee6 <_write_r+0x1e>
 8001ee4:	6023      	str	r3, [r4, #0]
 8001ee6:	bd38      	pop	{r3, r4, r5, pc}
 8001ee8:	200001ec 	.word	0x200001ec

08001eec <__errno>:
 8001eec:	4b01      	ldr	r3, [pc, #4]	@ (8001ef4 <__errno+0x8>)
 8001eee:	6818      	ldr	r0, [r3, #0]
 8001ef0:	4770      	bx	lr
 8001ef2:	bf00      	nop
 8001ef4:	20000038 	.word	0x20000038

08001ef8 <__libc_init_array>:
 8001ef8:	b570      	push	{r4, r5, r6, lr}
 8001efa:	4b0d      	ldr	r3, [pc, #52]	@ (8001f30 <__libc_init_array+0x38>)
 8001efc:	4d0d      	ldr	r5, [pc, #52]	@ (8001f34 <__libc_init_array+0x3c>)
 8001efe:	1b5b      	subs	r3, r3, r5
 8001f00:	109c      	asrs	r4, r3, #2
 8001f02:	2600      	movs	r6, #0
 8001f04:	42a6      	cmp	r6, r4
 8001f06:	d109      	bne.n	8001f1c <__libc_init_array+0x24>
 8001f08:	f000 fa50 	bl	80023ac <_init>
 8001f0c:	4d0a      	ldr	r5, [pc, #40]	@ (8001f38 <__libc_init_array+0x40>)
 8001f0e:	4b0b      	ldr	r3, [pc, #44]	@ (8001f3c <__libc_init_array+0x44>)
 8001f10:	1b5b      	subs	r3, r3, r5
 8001f12:	109c      	asrs	r4, r3, #2
 8001f14:	2600      	movs	r6, #0
 8001f16:	42a6      	cmp	r6, r4
 8001f18:	d105      	bne.n	8001f26 <__libc_init_array+0x2e>
 8001f1a:	bd70      	pop	{r4, r5, r6, pc}
 8001f1c:	f855 3b04 	ldr.w	r3, [r5], #4
 8001f20:	4798      	blx	r3
 8001f22:	3601      	adds	r6, #1
 8001f24:	e7ee      	b.n	8001f04 <__libc_init_array+0xc>
 8001f26:	f855 3b04 	ldr.w	r3, [r5], #4
 8001f2a:	4798      	blx	r3
 8001f2c:	3601      	adds	r6, #1
 8001f2e:	e7f2      	b.n	8001f16 <__libc_init_array+0x1e>
 8001f30:	080023fc 	.word	0x080023fc
 8001f34:	080023fc 	.word	0x080023fc
 8001f38:	080023fc 	.word	0x080023fc
 8001f3c:	08002400 	.word	0x08002400

08001f40 <__retarget_lock_init_recursive>:
 8001f40:	4770      	bx	lr

08001f42 <__retarget_lock_acquire_recursive>:
 8001f42:	4770      	bx	lr

08001f44 <__retarget_lock_release_recursive>:
 8001f44:	4770      	bx	lr
	...

08001f48 <_free_r>:
 8001f48:	b538      	push	{r3, r4, r5, lr}
 8001f4a:	4605      	mov	r5, r0
 8001f4c:	2900      	cmp	r1, #0
 8001f4e:	d041      	beq.n	8001fd4 <_free_r+0x8c>
 8001f50:	f851 3c04 	ldr.w	r3, [r1, #-4]
 8001f54:	1f0c      	subs	r4, r1, #4
 8001f56:	2b00      	cmp	r3, #0
 8001f58:	bfb8      	it	lt
 8001f5a:	18e4      	addlt	r4, r4, r3
 8001f5c:	f000 f8e0 	bl	8002120 <__malloc_lock>
 8001f60:	4a1d      	ldr	r2, [pc, #116]	@ (8001fd8 <_free_r+0x90>)
 8001f62:	6813      	ldr	r3, [r2, #0]
 8001f64:	b933      	cbnz	r3, 8001f74 <_free_r+0x2c>
 8001f66:	6063      	str	r3, [r4, #4]
 8001f68:	6014      	str	r4, [r2, #0]
 8001f6a:	4628      	mov	r0, r5
 8001f6c:	e8bd 4038 	ldmia.w	sp!, {r3, r4, r5, lr}
 8001f70:	f000 b8dc 	b.w	800212c <__malloc_unlock>
 8001f74:	42a3      	cmp	r3, r4
 8001f76:	d908      	bls.n	8001f8a <_free_r+0x42>
 8001f78:	6820      	ldr	r0, [r4, #0]
 8001f7a:	1821      	adds	r1, r4, r0
 8001f7c:	428b      	cmp	r3, r1
 8001f7e:	bf01      	itttt	eq
 8001f80:	6819      	ldreq	r1, [r3, #0]
 8001f82:	685b      	ldreq	r3, [r3, #4]
 8001f84:	1809      	addeq	r1, r1, r0
 8001f86:	6021      	streq	r1, [r4, #0]
 8001f88:	e7ed      	b.n	8001f66 <_free_r+0x1e>
 8001f8a:	461a      	mov	r2, r3
 8001f8c:	685b      	ldr	r3, [r3, #4]
 8001f8e:	b10b      	cbz	r3, 8001f94 <_free_r+0x4c>
 8001f90:	42a3      	cmp	r3, r4
 8001f92:	d9fa      	bls.n	8001f8a <_free_r+0x42>
 8001f94:	6811      	ldr	r1, [r2, #0]
 8001f96:	1850      	adds	r0, r2, r1
 8001f98:	42a0      	cmp	r0, r4
 8001f9a:	d10b      	bne.n	8001fb4 <_free_r+0x6c>
 8001f9c:	6820      	ldr	r0, [r4, #0]
 8001f9e:	4401      	add	r1, r0
 8001fa0:	1850      	adds	r0, r2, r1
 8001fa2:	4283      	cmp	r3, r0
 8001fa4:	6011      	str	r1, [r2, #0]
 8001fa6:	d1e0      	bne.n	8001f6a <_free_r+0x22>
 8001fa8:	6818      	ldr	r0, [r3, #0]
 8001faa:	685b      	ldr	r3, [r3, #4]
 8001fac:	6053      	str	r3, [r2, #4]
 8001fae:	4408      	add	r0, r1
 8001fb0:	6010      	str	r0, [r2, #0]
 8001fb2:	e7da      	b.n	8001f6a <_free_r+0x22>
 8001fb4:	d902      	bls.n	8001fbc <_free_r+0x74>
 8001fb6:	230c      	movs	r3, #12
 8001fb8:	602b      	str	r3, [r5, #0]
 8001fba:	e7d6      	b.n	8001f6a <_free_r+0x22>
 8001fbc:	6820      	ldr	r0, [r4, #0]
 8001fbe:	1821      	adds	r1, r4, r0
 8001fc0:	428b      	cmp	r3, r1
 8001fc2:	bf04      	itt	eq
 8001fc4:	6819      	ldreq	r1, [r3, #0]
 8001fc6:	685b      	ldreq	r3, [r3, #4]
 8001fc8:	6063      	str	r3, [r4, #4]
 8001fca:	bf04      	itt	eq
 8001fcc:	1809      	addeq	r1, r1, r0
 8001fce:	6021      	streq	r1, [r4, #0]
 8001fd0:	6054      	str	r4, [r2, #4]
 8001fd2:	e7ca      	b.n	8001f6a <_free_r+0x22>
 8001fd4:	bd38      	pop	{r3, r4, r5, pc}
 8001fd6:	bf00      	nop
 8001fd8:	200001f8 	.word	0x200001f8

08001fdc <sbrk_aligned>:
 8001fdc:	b570      	push	{r4, r5, r6, lr}
 8001fde:	4e0f      	ldr	r6, [pc, #60]	@ (800201c <sbrk_aligned+0x40>)
 8001fe0:	460c      	mov	r4, r1
 8001fe2:	6831      	ldr	r1, [r6, #0]
 8001fe4:	4605      	mov	r5, r0
 8001fe6:	b911      	cbnz	r1, 8001fee <sbrk_aligned+0x12>
 8001fe8:	f000 f9d0 	bl	800238c <_sbrk_r>
 8001fec:	6030      	str	r0, [r6, #0]
 8001fee:	4621      	mov	r1, r4
 8001ff0:	4628      	mov	r0, r5
 8001ff2:	f000 f9cb 	bl	800238c <_sbrk_r>
 8001ff6:	1c43      	adds	r3, r0, #1
 8001ff8:	d103      	bne.n	8002002 <sbrk_aligned+0x26>
 8001ffa:	f04f 34ff 	mov.w	r4, #4294967295
 8001ffe:	4620      	mov	r0, r4
 8002000:	bd70      	pop	{r4, r5, r6, pc}
 8002002:	1cc4      	adds	r4, r0, #3
 8002004:	f024 0403 	bic.w	r4, r4, #3
 8002008:	42a0      	cmp	r0, r4
 800200a:	d0f8      	beq.n	8001ffe <sbrk_aligned+0x22>
 800200c:	1a21      	subs	r1, r4, r0
 800200e:	4628      	mov	r0, r5
 8002010:	f000 f9bc 	bl	800238c <_sbrk_r>
 8002014:	3001      	adds	r0, #1
 8002016:	d1f2      	bne.n	8001ffe <sbrk_aligned+0x22>
 8002018:	e7ef      	b.n	8001ffa <sbrk_aligned+0x1e>
 800201a:	bf00      	nop
 800201c:	200001f4 	.word	0x200001f4

08002020 <_malloc_r>:
 8002020:	e92d 43f8 	stmdb	sp!, {r3, r4, r5, r6, r7, r8, r9, lr}
 8002024:	1ccd      	adds	r5, r1, #3
 8002026:	f025 0503 	bic.w	r5, r5, #3
 800202a:	3508      	adds	r5, #8
 800202c:	2d0c      	cmp	r5, #12
 800202e:	bf38      	it	cc
 8002030:	250c      	movcc	r5, #12
 8002032:	2d00      	cmp	r5, #0
 8002034:	4606      	mov	r6, r0
 8002036:	db01      	blt.n	800203c <_malloc_r+0x1c>
 8002038:	42a9      	cmp	r1, r5
 800203a:	d904      	bls.n	8002046 <_malloc_r+0x26>
 800203c:	230c      	movs	r3, #12
 800203e:	6033      	str	r3, [r6, #0]
 8002040:	2000      	movs	r0, #0
 8002042:	e8bd 83f8 	ldmia.w	sp!, {r3, r4, r5, r6, r7, r8, r9, pc}
 8002046:	f8df 80d4 	ldr.w	r8, [pc, #212]	@ 800211c <_malloc_r+0xfc>
 800204a:	f000 f869 	bl	8002120 <__malloc_lock>
 800204e:	f8d8 3000 	ldr.w	r3, [r8]
 8002052:	461c      	mov	r4, r3
 8002054:	bb44      	cbnz	r4, 80020a8 <_malloc_r+0x88>
 8002056:	4629      	mov	r1, r5
 8002058:	4630      	mov	r0, r6
 800205a:	f7ff ffbf 	bl	8001fdc <sbrk_aligned>
 800205e:	1c43      	adds	r3, r0, #1
 8002060:	4604      	mov	r4, r0
 8002062:	d158      	bne.n	8002116 <_malloc_r+0xf6>
 8002064:	f8d8 4000 	ldr.w	r4, [r8]
 8002068:	4627      	mov	r7, r4
 800206a:	2f00      	cmp	r7, #0
 800206c:	d143      	bne.n	80020f6 <_malloc_r+0xd6>
 800206e:	2c00      	cmp	r4, #0
 8002070:	d04b      	beq.n	800210a <_malloc_r+0xea>
 8002072:	6823      	ldr	r3, [r4, #0]
 8002074:	4639      	mov	r1, r7
 8002076:	4630      	mov	r0, r6
 8002078:	eb04 0903 	add.w	r9, r4, r3
 800207c:	f000 f986 	bl	800238c <_sbrk_r>
 8002080:	4581      	cmp	r9, r0
 8002082:	d142      	bne.n	800210a <_malloc_r+0xea>
 8002084:	6821      	ldr	r1, [r4, #0]
 8002086:	1a6d      	subs	r5, r5, r1
 8002088:	4629      	mov	r1, r5
 800208a:	4630      	mov	r0, r6
 800208c:	f7ff ffa6 	bl	8001fdc <sbrk_aligned>
 8002090:	3001      	adds	r0, #1
 8002092:	d03a      	beq.n	800210a <_malloc_r+0xea>
 8002094:	6823      	ldr	r3, [r4, #0]
 8002096:	442b      	add	r3, r5
 8002098:	6023      	str	r3, [r4, #0]
 800209a:	f8d8 3000 	ldr.w	r3, [r8]
 800209e:	685a      	ldr	r2, [r3, #4]
 80020a0:	bb62      	cbnz	r2, 80020fc <_malloc_r+0xdc>
 80020a2:	f8c8 7000 	str.w	r7, [r8]
 80020a6:	e00f      	b.n	80020c8 <_malloc_r+0xa8>
 80020a8:	6822      	ldr	r2, [r4, #0]
 80020aa:	1b52      	subs	r2, r2, r5
 80020ac:	d420      	bmi.n	80020f0 <_malloc_r+0xd0>
 80020ae:	2a0b      	cmp	r2, #11
 80020b0:	d917      	bls.n	80020e2 <_malloc_r+0xc2>
 80020b2:	1961      	adds	r1, r4, r5
 80020b4:	42a3      	cmp	r3, r4
 80020b6:	6025      	str	r5, [r4, #0]
 80020b8:	bf18      	it	ne
 80020ba:	6059      	strne	r1, [r3, #4]
 80020bc:	6863      	ldr	r3, [r4, #4]
 80020be:	bf08      	it	eq
 80020c0:	f8c8 1000 	streq.w	r1, [r8]
 80020c4:	5162      	str	r2, [r4, r5]
 80020c6:	604b      	str	r3, [r1, #4]
 80020c8:	4630      	mov	r0, r6
 80020ca:	f000 f82f 	bl	800212c <__malloc_unlock>
 80020ce:	f104 000b 	add.w	r0, r4, #11
 80020d2:	1d23      	adds	r3, r4, #4
 80020d4:	f020 0007 	bic.w	r0, r0, #7
 80020d8:	1ac2      	subs	r2, r0, r3
 80020da:	bf1c      	itt	ne
 80020dc:	1a1b      	subne	r3, r3, r0
 80020de:	50a3      	strne	r3, [r4, r2]
 80020e0:	e7af      	b.n	8002042 <_malloc_r+0x22>
 80020e2:	6862      	ldr	r2, [r4, #4]
 80020e4:	42a3      	cmp	r3, r4
 80020e6:	bf0c      	ite	eq
 80020e8:	f8c8 2000 	streq.w	r2, [r8]
 80020ec:	605a      	strne	r2, [r3, #4]
 80020ee:	e7eb      	b.n	80020c8 <_malloc_r+0xa8>
 80020f0:	4623      	mov	r3, r4
 80020f2:	6864      	ldr	r4, [r4, #4]
 80020f4:	e7ae      	b.n	8002054 <_malloc_r+0x34>
 80020f6:	463c      	mov	r4, r7
 80020f8:	687f      	ldr	r7, [r7, #4]
 80020fa:	e7b6      	b.n	800206a <_malloc_r+0x4a>
 80020fc:	461a      	mov	r2, r3
 80020fe:	685b      	ldr	r3, [r3, #4]
 8002100:	42a3      	cmp	r3, r4
 8002102:	d1fb      	bne.n	80020fc <_malloc_r+0xdc>
 8002104:	2300      	movs	r3, #0
 8002106:	6053      	str	r3, [r2, #4]
 8002108:	e7de      	b.n	80020c8 <_malloc_r+0xa8>
 800210a:	230c      	movs	r3, #12
 800210c:	6033      	str	r3, [r6, #0]
 800210e:	4630      	mov	r0, r6
 8002110:	f000 f80c 	bl	800212c <__malloc_unlock>
 8002114:	e794      	b.n	8002040 <_malloc_r+0x20>
 8002116:	6005      	str	r5, [r0, #0]
 8002118:	e7d6      	b.n	80020c8 <_malloc_r+0xa8>
 800211a:	bf00      	nop
 800211c:	200001f8 	.word	0x200001f8

08002120 <__malloc_lock>:
 8002120:	4801      	ldr	r0, [pc, #4]	@ (8002128 <__malloc_lock+0x8>)
 8002122:	f7ff bf0e 	b.w	8001f42 <__retarget_lock_acquire_recursive>
 8002126:	bf00      	nop
 8002128:	200001f0 	.word	0x200001f0

0800212c <__malloc_unlock>:
 800212c:	4801      	ldr	r0, [pc, #4]	@ (8002134 <__malloc_unlock+0x8>)
 800212e:	f7ff bf09 	b.w	8001f44 <__retarget_lock_release_recursive>
 8002132:	bf00      	nop
 8002134:	200001f0 	.word	0x200001f0

08002138 <__sflush_r>:
 8002138:	f9b1 200c 	ldrsh.w	r2, [r1, #12]
 800213c:	e92d 41f0 	stmdb	sp!, {r4, r5, r6, r7, r8, lr}
 8002140:	0716      	lsls	r6, r2, #28
 8002142:	4605      	mov	r5, r0
 8002144:	460c      	mov	r4, r1
 8002146:	d451      	bmi.n	80021ec <__sflush_r+0xb4>
 8002148:	684b      	ldr	r3, [r1, #4]
 800214a:	2b00      	cmp	r3, #0
 800214c:	dc02      	bgt.n	8002154 <__sflush_r+0x1c>
 800214e:	6c0b      	ldr	r3, [r1, #64]	@ 0x40
 8002150:	2b00      	cmp	r3, #0
 8002152:	dd49      	ble.n	80021e8 <__sflush_r+0xb0>
 8002154:	6ae6      	ldr	r6, [r4, #44]	@ 0x2c
 8002156:	2e00      	cmp	r6, #0
 8002158:	d046      	beq.n	80021e8 <__sflush_r+0xb0>
 800215a:	2300      	movs	r3, #0
 800215c:	f412 5280 	ands.w	r2, r2, #4096	@ 0x1000
 8002160:	682f      	ldr	r7, [r5, #0]
 8002162:	602b      	str	r3, [r5, #0]
 8002164:	d031      	beq.n	80021ca <__sflush_r+0x92>
 8002166:	6d62      	ldr	r2, [r4, #84]	@ 0x54
 8002168:	89a3      	ldrh	r3, [r4, #12]
 800216a:	0759      	lsls	r1, r3, #29
 800216c:	d505      	bpl.n	800217a <__sflush_r+0x42>
 800216e:	6863      	ldr	r3, [r4, #4]
 8002170:	1ad2      	subs	r2, r2, r3
 8002172:	6b63      	ldr	r3, [r4, #52]	@ 0x34
 8002174:	b10b      	cbz	r3, 800217a <__sflush_r+0x42>
 8002176:	6c23      	ldr	r3, [r4, #64]	@ 0x40
 8002178:	1ad2      	subs	r2, r2, r3
 800217a:	2300      	movs	r3, #0
 800217c:	6ae6      	ldr	r6, [r4, #44]	@ 0x2c
 800217e:	6a21      	ldr	r1, [r4, #32]
 8002180:	4628      	mov	r0, r5
 8002182:	47b0      	blx	r6
 8002184:	1c42      	adds	r2, r0, #1
 8002186:	f9b4 300c 	ldrsh.w	r3, [r4, #12]
 800218a:	d106      	bne.n	800219a <__sflush_r+0x62>
 800218c:	6829      	ldr	r1, [r5, #0]
 800218e:	291d      	cmp	r1, #29
 8002190:	d846      	bhi.n	8002220 <__sflush_r+0xe8>
 8002192:	4a29      	ldr	r2, [pc, #164]	@ (8002238 <__sflush_r+0x100>)
 8002194:	40ca      	lsrs	r2, r1
 8002196:	07d6      	lsls	r6, r2, #31
 8002198:	d542      	bpl.n	8002220 <__sflush_r+0xe8>
 800219a:	2200      	movs	r2, #0
 800219c:	6062      	str	r2, [r4, #4]
 800219e:	04d9      	lsls	r1, r3, #19
 80021a0:	6922      	ldr	r2, [r4, #16]
 80021a2:	6022      	str	r2, [r4, #0]
 80021a4:	d504      	bpl.n	80021b0 <__sflush_r+0x78>
 80021a6:	1c42      	adds	r2, r0, #1
 80021a8:	d101      	bne.n	80021ae <__sflush_r+0x76>
 80021aa:	682b      	ldr	r3, [r5, #0]
 80021ac:	b903      	cbnz	r3, 80021b0 <__sflush_r+0x78>
 80021ae:	6560      	str	r0, [r4, #84]	@ 0x54
 80021b0:	6b61      	ldr	r1, [r4, #52]	@ 0x34
 80021b2:	602f      	str	r7, [r5, #0]
 80021b4:	b1c1      	cbz	r1, 80021e8 <__sflush_r+0xb0>
 80021b6:	f104 0344 	add.w	r3, r4, #68	@ 0x44
 80021ba:	4299      	cmp	r1, r3
 80021bc:	d002      	beq.n	80021c4 <__sflush_r+0x8c>
 80021be:	4628      	mov	r0, r5
 80021c0:	f7ff fec2 	bl	8001f48 <_free_r>
 80021c4:	2300      	movs	r3, #0
 80021c6:	6363      	str	r3, [r4, #52]	@ 0x34
 80021c8:	e00e      	b.n	80021e8 <__sflush_r+0xb0>
 80021ca:	6a21      	ldr	r1, [r4, #32]
 80021cc:	2301      	movs	r3, #1
 80021ce:	4628      	mov	r0, r5
 80021d0:	47b0      	blx	r6
 80021d2:	4602      	mov	r2, r0
 80021d4:	1c50      	adds	r0, r2, #1
 80021d6:	d1c7      	bne.n	8002168 <__sflush_r+0x30>
 80021d8:	682b      	ldr	r3, [r5, #0]
 80021da:	2b00      	cmp	r3, #0
 80021dc:	d0c4      	beq.n	8002168 <__sflush_r+0x30>
 80021de:	2b1d      	cmp	r3, #29
 80021e0:	d001      	beq.n	80021e6 <__sflush_r+0xae>
 80021e2:	2b16      	cmp	r3, #22
 80021e4:	d11a      	bne.n	800221c <__sflush_r+0xe4>
 80021e6:	602f      	str	r7, [r5, #0]
 80021e8:	2000      	movs	r0, #0
 80021ea:	e01e      	b.n	800222a <__sflush_r+0xf2>
 80021ec:	690f      	ldr	r7, [r1, #16]
 80021ee:	2f00      	cmp	r7, #0
 80021f0:	d0fa      	beq.n	80021e8 <__sflush_r+0xb0>
 80021f2:	0793      	lsls	r3, r2, #30
 80021f4:	680e      	ldr	r6, [r1, #0]
 80021f6:	bf08      	it	eq
 80021f8:	694b      	ldreq	r3, [r1, #20]
 80021fa:	600f      	str	r7, [r1, #0]
 80021fc:	bf18      	it	ne
 80021fe:	2300      	movne	r3, #0
 8002200:	eba6 0807 	sub.w	r8, r6, r7
 8002204:	608b      	str	r3, [r1, #8]
 8002206:	f1b8 0f00 	cmp.w	r8, #0
 800220a:	dded      	ble.n	80021e8 <__sflush_r+0xb0>
 800220c:	6a21      	ldr	r1, [r4, #32]
 800220e:	6aa6      	ldr	r6, [r4, #40]	@ 0x28
 8002210:	4643      	mov	r3, r8
 8002212:	463a      	mov	r2, r7
 8002214:	4628      	mov	r0, r5
 8002216:	47b0      	blx	r6
 8002218:	2800      	cmp	r0, #0
 800221a:	dc08      	bgt.n	800222e <__sflush_r+0xf6>
 800221c:	f9b4 300c 	ldrsh.w	r3, [r4, #12]
 8002220:	f043 0340 	orr.w	r3, r3, #64	@ 0x40
 8002224:	81a3      	strh	r3, [r4, #12]
 8002226:	f04f 30ff 	mov.w	r0, #4294967295
 800222a:	e8bd 81f0 	ldmia.w	sp!, {r4, r5, r6, r7, r8, pc}
 800222e:	4407      	add	r7, r0
 8002230:	eba8 0800 	sub.w	r8, r8, r0
 8002234:	e7e7      	b.n	8002206 <__sflush_r+0xce>
 8002236:	bf00      	nop
 8002238:	20400001 	.word	0x20400001

0800223c <_fflush_r>:
 800223c:	b538      	push	{r3, r4, r5, lr}
 800223e:	690b      	ldr	r3, [r1, #16]
 8002240:	4605      	mov	r5, r0
 8002242:	460c      	mov	r4, r1
 8002244:	b913      	cbnz	r3, 800224c <_fflush_r+0x10>
 8002246:	2500      	movs	r5, #0
 8002248:	4628      	mov	r0, r5
 800224a:	bd38      	pop	{r3, r4, r5, pc}
 800224c:	b118      	cbz	r0, 8002256 <_fflush_r+0x1a>
 800224e:	6a03      	ldr	r3, [r0, #32]
 8002250:	b90b      	cbnz	r3, 8002256 <_fflush_r+0x1a>
 8002252:	f7ff fc93 	bl	8001b7c <__sinit>
 8002256:	f9b4 300c 	ldrsh.w	r3, [r4, #12]
 800225a:	2b00      	cmp	r3, #0
 800225c:	d0f3      	beq.n	8002246 <_fflush_r+0xa>
 800225e:	6e62      	ldr	r2, [r4, #100]	@ 0x64
 8002260:	07d0      	lsls	r0, r2, #31
 8002262:	d404      	bmi.n	800226e <_fflush_r+0x32>
 8002264:	0599      	lsls	r1, r3, #22
 8002266:	d402      	bmi.n	800226e <_fflush_r+0x32>
 8002268:	6da0      	ldr	r0, [r4, #88]	@ 0x58
 800226a:	f7ff fe6a 	bl	8001f42 <__retarget_lock_acquire_recursive>
 800226e:	4628      	mov	r0, r5
 8002270:	4621      	mov	r1, r4
 8002272:	f7ff ff61 	bl	8002138 <__sflush_r>
 8002276:	6e63      	ldr	r3, [r4, #100]	@ 0x64
 8002278:	07da      	lsls	r2, r3, #31
 800227a:	4605      	mov	r5, r0
 800227c:	d4e4      	bmi.n	8002248 <_fflush_r+0xc>
 800227e:	89a3      	ldrh	r3, [r4, #12]
 8002280:	059b      	lsls	r3, r3, #22
 8002282:	d4e1      	bmi.n	8002248 <_fflush_r+0xc>
 8002284:	6da0      	ldr	r0, [r4, #88]	@ 0x58
 8002286:	f7ff fe5d 	bl	8001f44 <__retarget_lock_release_recursive>
 800228a:	e7dd      	b.n	8002248 <_fflush_r+0xc>

0800228c <__swhatbuf_r>:
 800228c:	b570      	push	{r4, r5, r6, lr}
 800228e:	460c      	mov	r4, r1
 8002290:	f9b1 100e 	ldrsh.w	r1, [r1, #14]
 8002294:	2900      	cmp	r1, #0
 8002296:	b096      	sub	sp, #88	@ 0x58
 8002298:	4615      	mov	r5, r2
 800229a:	461e      	mov	r6, r3
 800229c:	da0a      	bge.n	80022b4 <__swhatbuf_r+0x28>
 800229e:	89a1      	ldrh	r1, [r4, #12]
 80022a0:	f011 0180 	ands.w	r1, r1, #128	@ 0x80
 80022a4:	d113      	bne.n	80022ce <__swhatbuf_r+0x42>
 80022a6:	f44f 6280 	mov.w	r2, #1024	@ 0x400
 80022aa:	2000      	movs	r0, #0
 80022ac:	6031      	str	r1, [r6, #0]
 80022ae:	602a      	str	r2, [r5, #0]
 80022b0:	b016      	add	sp, #88	@ 0x58
 80022b2:	bd70      	pop	{r4, r5, r6, pc}
 80022b4:	466a      	mov	r2, sp
 80022b6:	f000 f847 	bl	8002348 <_fstat_r>
 80022ba:	2800      	cmp	r0, #0
 80022bc:	dbef      	blt.n	800229e <__swhatbuf_r+0x12>
 80022be:	9901      	ldr	r1, [sp, #4]
 80022c0:	f401 4170 	and.w	r1, r1, #61440	@ 0xf000
 80022c4:	f5a1 5300 	sub.w	r3, r1, #8192	@ 0x2000
 80022c8:	4259      	negs	r1, r3
 80022ca:	4159      	adcs	r1, r3
 80022cc:	e7eb      	b.n	80022a6 <__swhatbuf_r+0x1a>
 80022ce:	2100      	movs	r1, #0
 80022d0:	2240      	movs	r2, #64	@ 0x40
 80022d2:	e7ea      	b.n	80022aa <__swhatbuf_r+0x1e>

080022d4 <__smakebuf_r>:
 80022d4:	898b      	ldrh	r3, [r1, #12]
 80022d6:	b573      	push	{r0, r1, r4, r5, r6, lr}
 80022d8:	079e      	lsls	r6, r3, #30
 80022da:	4605      	mov	r5, r0
 80022dc:	460c      	mov	r4, r1
 80022de:	d507      	bpl.n	80022f0 <__smakebuf_r+0x1c>
 80022e0:	f104 0347 	add.w	r3, r4, #71	@ 0x47
 80022e4:	6023      	str	r3, [r4, #0]
 80022e6:	6123      	str	r3, [r4, #16]
 80022e8:	2301      	movs	r3, #1
 80022ea:	6163      	str	r3, [r4, #20]
 80022ec:	b002      	add	sp, #8
 80022ee:	bd70      	pop	{r4, r5, r6, pc}
 80022f0:	ab01      	add	r3, sp, #4
 80022f2:	466a      	mov	r2, sp
 80022f4:	f7ff ffca 	bl	800228c <__swhatbuf_r>
 80022f8:	9e00      	ldr	r6, [sp, #0]
 80022fa:	4628      	mov	r0, r5
 80022fc:	4631      	mov	r1, r6
 80022fe:	f7ff fe8f 	bl	8002020 <_malloc_r>
 8002302:	f9b4 300c 	ldrsh.w	r3, [r4, #12]
 8002306:	b938      	cbnz	r0, 8002318 <__smakebuf_r+0x44>
 8002308:	059a      	lsls	r2, r3, #22
 800230a:	d4ef      	bmi.n	80022ec <__smakebuf_r+0x18>
 800230c:	f023 0303 	bic.w	r3, r3, #3
 8002310:	f043 0302 	orr.w	r3, r3, #2
 8002314:	81a3      	strh	r3, [r4, #12]
 8002316:	e7e3      	b.n	80022e0 <__smakebuf_r+0xc>
 8002318:	f043 0380 	orr.w	r3, r3, #128	@ 0x80
 800231c:	81a3      	strh	r3, [r4, #12]
 800231e:	9b01      	ldr	r3, [sp, #4]
 8002320:	6020      	str	r0, [r4, #0]
 8002322:	e9c4 0604 	strd	r0, r6, [r4, #16]
 8002326:	2b00      	cmp	r3, #0
 8002328:	d0e0      	beq.n	80022ec <__smakebuf_r+0x18>
 800232a:	f9b4 100e 	ldrsh.w	r1, [r4, #14]
 800232e:	4628      	mov	r0, r5
 8002330:	f000 f81c 	bl	800236c <_isatty_r>
 8002334:	2800      	cmp	r0, #0
 8002336:	d0d9      	beq.n	80022ec <__smakebuf_r+0x18>
 8002338:	89a3      	ldrh	r3, [r4, #12]
 800233a:	f023 0303 	bic.w	r3, r3, #3
 800233e:	f043 0301 	orr.w	r3, r3, #1
 8002342:	81a3      	strh	r3, [r4, #12]
 8002344:	e7d2      	b.n	80022ec <__smakebuf_r+0x18>
	...

08002348 <_fstat_r>:
 8002348:	b538      	push	{r3, r4, r5, lr}
 800234a:	4d07      	ldr	r5, [pc, #28]	@ (8002368 <_fstat_r+0x20>)
 800234c:	2300      	movs	r3, #0
 800234e:	4604      	mov	r4, r0
 8002350:	4608      	mov	r0, r1
 8002352:	4611      	mov	r1, r2
 8002354:	602b      	str	r3, [r5, #0]
 8002356:	f7fe fdf5 	bl	8000f44 <_fstat>
 800235a:	1c43      	adds	r3, r0, #1
 800235c:	d102      	bne.n	8002364 <_fstat_r+0x1c>
 800235e:	682b      	ldr	r3, [r5, #0]
 8002360:	b103      	cbz	r3, 8002364 <_fstat_r+0x1c>
 8002362:	6023      	str	r3, [r4, #0]
 8002364:	bd38      	pop	{r3, r4, r5, pc}
 8002366:	bf00      	nop
 8002368:	200001ec 	.word	0x200001ec

0800236c <_isatty_r>:
 800236c:	b538      	push	{r3, r4, r5, lr}
 800236e:	4d06      	ldr	r5, [pc, #24]	@ (8002388 <_isatty_r+0x1c>)
 8002370:	2300      	movs	r3, #0
 8002372:	4604      	mov	r4, r0
 8002374:	4608      	mov	r0, r1
 8002376:	602b      	str	r3, [r5, #0]
 8002378:	f7fe fdf4 	bl	8000f64 <_isatty>
 800237c:	1c43      	adds	r3, r0, #1
 800237e:	d102      	bne.n	8002386 <_isatty_r+0x1a>
 8002380:	682b      	ldr	r3, [r5, #0]
 8002382:	b103      	cbz	r3, 8002386 <_isatty_r+0x1a>
 8002384:	6023      	str	r3, [r4, #0]
 8002386:	bd38      	pop	{r3, r4, r5, pc}
 8002388:	200001ec 	.word	0x200001ec

0800238c <_sbrk_r>:
 800238c:	b538      	push	{r3, r4, r5, lr}
 800238e:	4d06      	ldr	r5, [pc, #24]	@ (80023a8 <_sbrk_r+0x1c>)
 8002390:	2300      	movs	r3, #0
 8002392:	4604      	mov	r4, r0
 8002394:	4608      	mov	r0, r1
 8002396:	602b      	str	r3, [r5, #0]
 8002398:	f7fe fdfc 	bl	8000f94 <_sbrk>
 800239c:	1c43      	adds	r3, r0, #1
 800239e:	d102      	bne.n	80023a6 <_sbrk_r+0x1a>
 80023a0:	682b      	ldr	r3, [r5, #0]
 80023a2:	b103      	cbz	r3, 80023a6 <_sbrk_r+0x1a>
 80023a4:	6023      	str	r3, [r4, #0]
 80023a6:	bd38      	pop	{r3, r4, r5, pc}
 80023a8:	200001ec 	.word	0x200001ec

080023ac <_init>:
 80023ac:	b5f8      	push	{r3, r4, r5, r6, r7, lr}
 80023ae:	bf00      	nop
 80023b0:	bcf8      	pop	{r3, r4, r5, r6, r7}
 80023b2:	bc08      	pop	{r3}
 80023b4:	469e      	mov	lr, r3
 80023b6:	4770      	bx	lr

080023b8 <_fini>:
 80023b8:	b5f8      	push	{r3, r4, r5, r6, r7, lr}
 80023ba:	bf00      	nop
 80023bc:	bcf8      	pop	{r3, r4, r5, r6, r7}
 80023be:	bc08      	pop	{r3}
 80023c0:	469e      	mov	lr, r3
 80023c2:	4770      	bx	lr
